///////////////////////////////////////////////////////////////////////////////
//
// IAR C/C++ Compiler V10.20.1.5333 for 8051              16/Jul/2019  09:53:44
// Copyright 2004-2018 IAR Systems AB.
// PC-locked license - IAR Embedded Workbench for 8051
//
//    Core               =  plain
//    Code model         =  banked
//    Data model         =  large
//    Calling convention =  xdata reentrant
//    Constant location  =  data_rom
//    Dptr setup         =  1,16
//                          
//    Source file        =  
//        C:\Users\fz\Desktop\9、网络通信实验（单播、组播、广播）\2、组播_协调器\Components\hal\target\CC2530EB\hal_lcd.c
//    Command line       =  
//        -f C:\Users\fz\AppData\Local\Temp\EWD63C.tmp
//        (C:\Users\fz\Desktop\9、网络通信实验（单播、组播、广播）\2、组播_协调器\Components\hal\target\CC2530EB\hal_lcd.c
//        -D ZTOOL_P1 -D xMT_TASK -D xMT_SYS_FUNC -D xMT_ZDO_FUNC -D
//        LCD_SUPPORTED=DEBUG -lC
//        C:\Users\fz\Desktop\9、网络通信实验（单播、组播、广播）\2、组播_协调器\Projects\zstack\Samples\SampleApp\CC2530DB\CoordinatorEB\List
//        -lA
//        C:\Users\fz\Desktop\9、网络通信实验（单播、组播、广播）\2、组播_协调器\Projects\zstack\Samples\SampleApp\CC2530DB\CoordinatorEB\List
//        --diag_suppress Pe001,Pa010 -o
//        C:\Users\fz\Desktop\9、网络通信实验（单播、组播、广播）\2、组播_协调器\Projects\zstack\Samples\SampleApp\CC2530DB\CoordinatorEB\Obj
//        -e --debug --core=plain --dptr=16,1 --data_model=large
//        --code_model=banked --calling_convention=xdata_reentrant
//        --place_constants=data_rom --nr_virtual_regs 8 -f
//        C:\Users\fz\Desktop\9、网络通信实验（单播、组播、广播）\2、组播_协调器\Projects\zstack\Samples\SampleApp\CC2530DB\..\..\..\Tools\CC2530DB\f8wCoord.cfg
//        (-DCPU32MHZ -DROOT=__near_func -DMAC_CFG_APP_PENDING_QUEUE=TRUE
//        -DMAC_CFG_TX_DATA_MAX=5 -DMAC_CFG_TX_MAX=8 -DMAC_CFG_RX_MAX=5
//        -DZDO_COORDINATOR -DRTR_NWK) -f
//        C:\Users\fz\Desktop\9、网络通信实验（单播、组播、广播）\2、组播_协调器\Projects\zstack\Samples\SampleApp\CC2530DB\..\..\..\Tools\CC2530DB\f8wConfig.cfg
//        (-DZIGBEEPRO -DSECURE=0 -DZG_SECURE_DYNAMIC=0 -DREFLECTOR
//        -DDEFAULT_CHANLIST=0x00000800 -DZDAPP_CONFIG_PAN_ID=0xFF00
//        -DNWK_START_DELAY=100 -DEXTENDED_JOINING_RANDOM_MASK=0x007F
//        -DBEACON_REQUEST_DELAY=100 -DBEACON_REQ_DELAY_MASK=0x00FF
//        -DLINK_STATUS_JITTER_MASK=0x007F -DROUTE_EXPIRY_TIME=30
//        -DAPSC_ACK_WAIT_DURATION_POLLED=3000 -DNWK_INDIRECT_MSG_TIMEOUT=7
//        -DMAX_RREQ_ENTRIES=8 -DAPSC_MAX_FRAME_RETRIES=3
//        -DNWK_MAX_DATA_RETRIES=2 -DMAX_POLL_FAILURE_RETRIES=2 -DMAX_BCAST=9
//        -DAPS_MAX_GROUPS=16 -DMAX_RTG_ENTRIES=40 -DNWK_MAX_BINDING_ENTRIES=4
//        -DMAX_BINDING_CLUSTER_IDS=4 "-DDEFAULT_KEY={0x01, 0x03, 0x05, 0x07,
//        0x09, 0x0B, 0x0D, 0x0F, 0x00, 0x02, 0x04, 0x06, 0x08, 0x0A, 0x0C,
//        0x0D}" -DMAC_MAX_FRAME_SIZE=116 -DZDNWKMGR_MIN_TRANSMISSIONS=20
//        "-DCONST=const __code" -DGENERIC=__generic -DRFD_RCVC_ALWAYS_ON=TRUE
//        -DPOLL_RATE=1000 -DQUEUED_POLL_RATE=100 -DRESPONSE_POLL_RATE=100
//        -DREJOIN_POLL_RATE=440) -I
//        C:\Users\fz\Desktop\9、网络通信实验（单播、组播、广播）\2、组播_协调器\Projects\zstack\Samples\SampleApp\CC2530DB\
//        -I
//        C:\Users\fz\Desktop\9、网络通信实验（单播、组播、广播）\2、组播_协调器\Projects\zstack\Samples\SampleApp\CC2530DB\..\Source\
//        -I
//        C:\Users\fz\Desktop\9、网络通信实验（单播、组播、广播）\2、组播_协调器\Projects\zstack\Samples\SampleApp\CC2530DB\..\..\..\ZMain\TI2530DB\
//        -I
//        C:\Users\fz\Desktop\9、网络通信实验（单播、组播、广播）\2、组播_协调器\Projects\zstack\Samples\SampleApp\CC2530DB\..\..\..\..\..\Components\hal\include\
//        -I
//        C:\Users\fz\Desktop\9、网络通信实验（单播、组播、广播）\2、组播_协调器\Projects\zstack\Samples\SampleApp\CC2530DB\..\..\..\..\..\Components\hal\target\CC2530EB\
//        -I
//        C:\Users\fz\Desktop\9、网络通信实验（单播、组播、广播）\2、组播_协调器\Projects\zstack\Samples\SampleApp\CC2530DB\..\..\..\..\..\Components\mac\include\
//        -I
//        C:\Users\fz\Desktop\9、网络通信实验（单播、组播、广播）\2、组播_协调器\Projects\zstack\Samples\SampleApp\CC2530DB\..\..\..\..\..\Components\mac\high_level\
//        -I
//        C:\Users\fz\Desktop\9、网络通信实验（单播、组播、广播）\2、组播_协调器\Projects\zstack\Samples\SampleApp\CC2530DB\..\..\..\..\..\Components\mac\low_level\srf04\
//        -I
//        C:\Users\fz\Desktop\9、网络通信实验（单播、组播、广播）\2、组播_协调器\Projects\zstack\Samples\SampleApp\CC2530DB\..\..\..\..\..\Components\mac\low_level\srf04\single_chip\
//        -I
//        C:\Users\fz\Desktop\9、网络通信实验（单播、组播、广播）\2、组播_协调器\Projects\zstack\Samples\SampleApp\CC2530DB\..\..\..\..\..\Components\mt\
//        -I
//        C:\Users\fz\Desktop\9、网络通信实验（单播、组播、广播）\2、组播_协调器\Projects\zstack\Samples\SampleApp\CC2530DB\..\..\..\..\..\Components\osal\include\
//        -I
//        C:\Users\fz\Desktop\9、网络通信实验（单播、组播、广播）\2、组播_协调器\Projects\zstack\Samples\SampleApp\CC2530DB\..\..\..\..\..\Components\services\saddr\
//        -I
//        C:\Users\fz\Desktop\9、网络通信实验（单播、组播、广播）\2、组播_协调器\Projects\zstack\Samples\SampleApp\CC2530DB\..\..\..\..\..\Components\services\sdata\
//        -I
//        C:\Users\fz\Desktop\9、网络通信实验（单播、组播、广播）\2、组播_协调器\Projects\zstack\Samples\SampleApp\CC2530DB\..\..\..\..\..\Components\stack\af\
//        -I
//        C:\Users\fz\Desktop\9、网络通信实验（单播、组播、广播）\2、组播_协调器\Projects\zstack\Samples\SampleApp\CC2530DB\..\..\..\..\..\Components\stack\nwk\
//        -I
//        C:\Users\fz\Desktop\9、网络通信实验（单播、组播、广播）\2、组播_协调器\Projects\zstack\Samples\SampleApp\CC2530DB\..\..\..\..\..\Components\stack\sapi\
//        -I
//        C:\Users\fz\Desktop\9、网络通信实验（单播、组播、广播）\2、组播_协调器\Projects\zstack\Samples\SampleApp\CC2530DB\..\..\..\..\..\Components\stack\sec\
//        -I
//        C:\Users\fz\Desktop\9、网络通信实验（单播、组播、广播）\2、组播_协调器\Projects\zstack\Samples\SampleApp\CC2530DB\..\..\..\..\..\Components\stack\sys\
//        -I
//        C:\Users\fz\Desktop\9、网络通信实验（单播、组播、广播）\2、组播_协调器\Projects\zstack\Samples\SampleApp\CC2530DB\..\..\..\..\..\Components\stack\zdo\
//        -I
//        C:\Users\fz\Desktop\9、网络通信实验（单播、组播、广播）\2、组播_协调器\Projects\zstack\Samples\SampleApp\CC2530DB\..\..\..\..\..\Components\zmac\
//        -I
//        C:\Users\fz\Desktop\9、网络通信实验（单播、组播、广播）\2、组播_协调器\Projects\zstack\Samples\SampleApp\CC2530DB\..\..\..\..\..\Components\zmac\f8w\
//        -Ohz --require_prototypes --no_code_motion)
//    Locale             =  Chinese (Simplified)_CHN.936
//    List file          =  
//        C:\Users\fz\Desktop\9、网络通信实验（单播、组播、广播）\2、组播_协调器\Projects\zstack\Samples\SampleApp\CC2530DB\CoordinatorEB\List\hal_lcd.s51
//
///////////////////////////////////////////////////////////////////////////////

        NAME hal_lcd

        RTMODEL "__SystemLibrary", "CLib"
        RTMODEL "__calling_convention", "xdata_reentrant"
        RTMODEL "__code_model", "banked"
        RTMODEL "__core", "plain"
        RTMODEL "__data_model", "large"
        RTMODEL "__dptr_size", "16"
        RTMODEL "__extended_stack", "disabled"
        RTMODEL "__location_for_constants", "data"
        RTMODEL "__number_of_dptrs", "1"
        RTMODEL "__register_banks", "*"
        RTMODEL "__rt_version", "1"

        RSEG DOVERLAY:DATA:NOROOT(0)
        RSEG IOVERLAY:IDATA:NOROOT(0)
        RSEG ISTACK:IDATA:NOROOT(0)
        RSEG PSTACK:XDATA:NOROOT(0)
        RSEG XSTACK:XDATA:NOROOT(0)

        EXTERN ?V0
        EXTERN ?V1
        EXTERN ?V2
        EXTERN ?V3
        EXTERN ?V4
        EXTERN ?V5
        EXTERN ?V6
        EXTERN ?V7
        EXTERN ?ALLOC_XSTACK8
        EXTERN ?BANKED_ENTER_XDATA
        EXTERN ?BANKED_LEAVE_XDATA
        EXTERN ?BDISPATCH
        EXTERN ?BRET
        EXTERN ?DEALLOC_XSTACK8
        EXTERN ?MOVE_LONG8_XDATA_XDATA
        EXTERN ?PUSH_XSTACK_I_THREE
        EXTERN ?PUSH_XSTACK_I_TWO
        EXTERN ?SS_SHR
        EXTERN ?XSP
        EXTERN ?XSTACK_DISP0_8
        EXTERN ?XSTACK_DISP101_8
        EXTERN __INIT_XDATA_Z

        PUBLIC `??HalLcdDisplayPercentBar::?relay`
        FUNCTION `??HalLcdDisplayPercentBar::?relay`,0203H
        PUBLIC `??HalLcdInit::?relay`
        FUNCTION `??HalLcdInit::?relay`,0203H
        PUBLIC `??HalLcdWriteScreen::?relay`
        FUNCTION `??HalLcdWriteScreen::?relay`,0203H
        PUBLIC `??HalLcdWriteString::?relay`
        FUNCTION `??HalLcdWriteString::?relay`,0203H
        PUBLIC `??HalLcdWriteStringValue::?relay`
        FUNCTION `??HalLcdWriteStringValue::?relay`,0203H
        PUBLIC `??HalLcdWriteStringValueValue::?relay`
        FUNCTION `??HalLcdWriteStringValueValue::?relay`,0203H
        PUBLIC `??HalLcdWriteValue::?relay`
        FUNCTION `??HalLcdWriteValue::?relay`,0203H
        PUBLIC `??HalLcd_Convert_DZK::?relay`
        FUNCTION `??HalLcd_Convert_DZK::?relay`,0203H
        PUBLIC `??HalLcd_HW_Clear::?relay`
        FUNCTION `??HalLcd_HW_Clear::?relay`,0203H
        PUBLIC `??HalLcd_HW_Control::?relay`
        FUNCTION `??HalLcd_HW_Control::?relay`,0203H
        PUBLIC `??HalLcd_HW_Init::?relay`
        FUNCTION `??HalLcd_HW_Init::?relay`,0203H
        PUBLIC `??HalLcd_HW_SetContrast::?relay`
        FUNCTION `??HalLcd_HW_SetContrast::?relay`,0203H
        PUBLIC `??HalLcd_HW_WaitUs::?relay`
        FUNCTION `??HalLcd_HW_WaitUs::?relay`,0203H
        PUBLIC `??HalLcd_HW_Write::?relay`
        FUNCTION `??HalLcd_HW_Write::?relay`,0203H
        PUBLIC `??HalLcd_HW_WriteChar::?relay`
        FUNCTION `??HalLcd_HW_WriteChar::?relay`,0203H
        PUBLIC `??HalLcd_HW_WriteLine::?relay`
        FUNCTION `??HalLcd_HW_WriteLine::?relay`,0203H
        PUBLIC `??SET_DDRAM_ADDR::?relay`
        FUNCTION `??SET_DDRAM_ADDR::?relay`,0203H
        PUBLIC ASCIITAB_DZK
        PUBLIC HalLcdDisplayPercentBar
        FUNCTION HalLcdDisplayPercentBar,0a1203H
        ARGFRAME XSTACK, 0, STACK
        LOCFRAME XSTACK, 32, STACK
        PUBLIC HalLcdInit
        FUNCTION HalLcdInit,021203H
        ARGFRAME XSTACK, 0, STACK
        LOCFRAME ISTACK, 2, STACK
        PUBLIC HalLcdWriteScreen
        FUNCTION HalLcdWriteScreen,021203H
        ARGFRAME XSTACK, 0, STACK
        LOCFRAME XSTACK, 9, STACK
        PUBLIC HalLcdWriteString
        FUNCTION HalLcdWriteString,0a1203H
        ARGFRAME XSTACK, 39, STACK
        ARGFRAME IOVERLAY, 0, STATIC
        ARGFRAME DOVERLAY, 0, STATIC
        LOCFRAME ISTACK, 1, STACK
        LOCFRAME XSTACK, 20, STACK
        PUBLIC HalLcdWriteStringValue
        FUNCTION HalLcdWriteStringValue,0a1203H
        ARGFRAME XSTACK, 1, STACK
        LOCFRAME XSTACK, 41, STACK
        PUBLIC HalLcdWriteStringValueValue
        FUNCTION HalLcdWriteStringValueValue,0a1203H
        ARGFRAME XSTACK, 4, STACK
        LOCFRAME XSTACK, 41, STACK
        PUBLIC HalLcdWriteValue
        FUNCTION HalLcdWriteValue,0a1203H
        ARGFRAME XSTACK, 1, STACK
        LOCFRAME XSTACK, 41, STACK
        PUBLIC HalLcd_Convert_DZK
        FUNCTION HalLcd_Convert_DZK,080203H
        ARGFRAME XSTACK, 12, STACK
        ARGFRAME IOVERLAY, 0, STATIC
        ARGFRAME DOVERLAY, 0, STATIC
        LOCFRAME XSTACK, 19, STACK
        PUBLIC HalLcd_HW_Clear
        FUNCTION HalLcd_HW_Clear,021203H
        ARGFRAME XSTACK, 0, STACK
        ARGFRAME IOVERLAY, 0, STATIC
        ARGFRAME DOVERLAY, 0, STATIC
        LOCFRAME XSTACK, 9, STACK
        PUBLIC HalLcd_HW_Control
        FUNCTION HalLcd_HW_Control,080203H
        ARGFRAME XSTACK, 9, STACK
        ARGFRAME IOVERLAY, 0, STATIC
        ARGFRAME DOVERLAY, 0, STATIC
        PUBLIC HalLcd_HW_Init
        FUNCTION HalLcd_HW_Init,021203H
        ARGFRAME XSTACK, 0, STACK
        ARGFRAME IOVERLAY, 0, STATIC
        ARGFRAME DOVERLAY, 0, STATIC
        LOCFRAME ISTACK, 2, STACK
        PUBLIC HalLcd_HW_SetContrast
        FUNCTION HalLcd_HW_SetContrast,021203H
        ARGFRAME XSTACK, 0, STACK
        ARGFRAME IOVERLAY, 0, STATIC
        ARGFRAME DOVERLAY, 0, STATIC
        LOCFRAME XSTACK, 9, STACK
        PUBLIC HalLcd_HW_WaitUs
        FUNCTION HalLcd_HW_WaitUs,080203H
        ARGFRAME XSTACK, 0, STACK
        PUBLIC HalLcd_HW_Write
        FUNCTION HalLcd_HW_Write,080203H
        ARGFRAME XSTACK, 12, STACK
        ARGFRAME IOVERLAY, 0, STATIC
        ARGFRAME DOVERLAY, 0, STATIC
        PUBLIC HalLcd_HW_WriteChar
        FUNCTION HalLcd_HW_WriteChar,0a1203H
        ARGFRAME XSTACK, 11, STACK
        ARGFRAME IOVERLAY, 0, STATIC
        ARGFRAME DOVERLAY, 0, STATIC
        LOCFRAME XSTACK, 12, STACK
        PUBLIC HalLcd_HW_WriteLine
        FUNCTION HalLcd_HW_WriteLine,0a1203H
        ARGFRAME XSTACK, 17, STACK
        ARGFRAME IOVERLAY, 0, STATIC
        ARGFRAME DOVERLAY, 0, STATIC
        LOCFRAME XSTACK, 11, STACK
        PUBWEAK P0DIR
        PUBWEAK P0SEL
        PUBWEAK P1DIR
        PUBWEAK P1SEL
        PUBWEAK PERCFG
        PUBLIC SET_DDRAM_ADDR
        FUNCTION SET_DDRAM_ADDR,021203H
        ARGFRAME XSTACK, 12, STACK
        ARGFRAME IOVERLAY, 0, STATIC
        ARGFRAME DOVERLAY, 0, STATIC
        LOCFRAME XSTACK, 9, STACK
        PUBWEAK U1BAUD
        PUBWEAK U1DBUF
        PUBWEAK U1GCR
        PUBWEAK U1UCR
        PUBWEAK _A_P0
        PUBWEAK _A_P1
        PUBWEAK _A_U1CSR
        
          CFI Names cfiNames0
          CFI StackFrame CFA_SP SP IDATA
          CFI StackFrame CFA_PSP16 PSP16 XDATA
          CFI StackFrame CFA_XSP16 XSP16 XDATA
          CFI StaticOverlayFrame CFA_IOVERLAY IOVERLAY
          CFI StaticOverlayFrame CFA_DOVERLAY DOVERLAY
          CFI Resource `PSW.CY`:1, `B.BR0`:1, `B.BR1`:1, `B.BR2`:1, `B.BR3`:1
          CFI Resource `B.BR4`:1, `B.BR5`:1, `B.BR6`:1, `B.BR7`:1, `VB.BR8`:1
          CFI Resource `VB.BR9`:1, `VB.BR10`:1, `VB.BR11`:1, `VB.BR12`:1
          CFI Resource `VB.BR13`:1, `VB.BR14`:1, `VB.BR15`:1, VB:8, B:8, A:8
          CFI Resource PSW:8, DPL0:8, DPH0:8, R0:8, R1:8, R2:8, R3:8, R4:8, R5:8
          CFI Resource R6:8, R7:8, V0:8, V1:8, V2:8, V3:8, V4:8, V5:8, V6:8, V7:8
          CFI Resource SP:8, PSPH:8, PSPL:8, PSP16:16, XSPH:8, XSPL:8, XSP16:16
          CFI VirtualResource ?RET:24
          CFI Resource ?BRET_EXT:8
          CFI VirtualResource ?RET_HIGH:8, ?RET_LOW:8
          CFI ResourceParts PSP16 PSPH, PSPL
          CFI ResourceParts XSP16 XSPH, XSPL
          CFI ResourceParts ?RET ?BRET_EXT, ?RET_HIGH, ?RET_LOW
          CFI EndNames cfiNames0
        
          CFI Common cfiCommon0 Using cfiNames0
          CFI CodeAlign 1
          CFI DataAlign -1
          CFI ReturnAddress ?RET CODE
          CFI CFA_DOVERLAY Used
          CFI CFA_IOVERLAY Used
          CFI CFA_SP SP+-3
          CFI CFA_PSP16 PSP16+0
          CFI CFA_XSP16 XSP16+0
          CFI `PSW.CY` SameValue
          CFI `B.BR0` SameValue
          CFI `B.BR1` SameValue
          CFI `B.BR2` SameValue
          CFI `B.BR3` SameValue
          CFI `B.BR4` SameValue
          CFI `B.BR5` SameValue
          CFI `B.BR6` SameValue
          CFI `B.BR7` SameValue
          CFI `VB.BR8` SameValue
          CFI `VB.BR9` SameValue
          CFI `VB.BR10` SameValue
          CFI `VB.BR11` SameValue
          CFI `VB.BR12` SameValue
          CFI `VB.BR13` SameValue
          CFI `VB.BR14` SameValue
          CFI `VB.BR15` SameValue
          CFI VB SameValue
          CFI B Undefined
          CFI A Undefined
          CFI PSW SameValue
          CFI DPL0 SameValue
          CFI DPH0 SameValue
          CFI R0 Undefined
          CFI R1 Undefined
          CFI R2 Undefined
          CFI R3 Undefined
          CFI R4 Undefined
          CFI R5 Undefined
          CFI R6 SameValue
          CFI R7 SameValue
          CFI V0 SameValue
          CFI V1 SameValue
          CFI V2 SameValue
          CFI V3 SameValue
          CFI V4 SameValue
          CFI V5 SameValue
          CFI V6 SameValue
          CFI V7 SameValue
          CFI PSPH Undefined
          CFI PSPL Undefined
          CFI XSPH Undefined
          CFI XSPL Undefined
          CFI ?RET Concat
          CFI ?BRET_EXT Frame(CFA_SP, 3)
          CFI ?RET_HIGH Frame(CFA_SP, 2)
          CFI ?RET_LOW Frame(CFA_SP, 1)
          CFI EndCommon cfiCommon0
        
        
          CFI Common cfiCommon1 Using cfiNames0
          CFI CodeAlign 1
          CFI DataAlign -1
          CFI ReturnAddress ?RET CODE
          CFI CFA_DOVERLAY Used
          CFI CFA_IOVERLAY Used
          CFI CFA_SP SP+-2
          CFI CFA_PSP16 PSP16+0
          CFI CFA_XSP16 XSP16+0
          CFI `PSW.CY` SameValue
          CFI `B.BR0` SameValue
          CFI `B.BR1` SameValue
          CFI `B.BR2` SameValue
          CFI `B.BR3` SameValue
          CFI `B.BR4` SameValue
          CFI `B.BR5` SameValue
          CFI `B.BR6` SameValue
          CFI `B.BR7` SameValue
          CFI `VB.BR8` SameValue
          CFI `VB.BR9` SameValue
          CFI `VB.BR10` SameValue
          CFI `VB.BR11` SameValue
          CFI `VB.BR12` SameValue
          CFI `VB.BR13` SameValue
          CFI `VB.BR14` SameValue
          CFI `VB.BR15` SameValue
          CFI VB SameValue
          CFI B SameValue
          CFI A SameValue
          CFI PSW SameValue
          CFI DPL0 SameValue
          CFI DPH0 SameValue
          CFI R0 SameValue
          CFI R1 SameValue
          CFI R2 SameValue
          CFI R3 SameValue
          CFI R4 SameValue
          CFI R5 SameValue
          CFI R6 SameValue
          CFI R7 SameValue
          CFI V0 SameValue
          CFI V1 SameValue
          CFI V2 SameValue
          CFI V3 SameValue
          CFI V4 SameValue
          CFI V5 SameValue
          CFI V6 SameValue
          CFI V7 SameValue
          CFI PSPH Undefined
          CFI PSPL Undefined
          CFI XSPH Undefined
          CFI XSPL Undefined
          CFI ?RET Concat
          CFI ?BRET_EXT SameValue
          CFI ?RET_HIGH Frame(CFA_SP, 2)
          CFI ?RET_LOW Frame(CFA_SP, 1)
          CFI EndCommon cfiCommon1
        
_ltoa               SYMBOL "_ltoa"
`??_ltoa::?relay`   SYMBOL "?relay", _ltoa
osal_mem_alloc      SYMBOL "osal_mem_alloc"
`??osal_mem_alloc::?relay` SYMBOL "?relay", osal_mem_alloc
osal_mem_free       SYMBOL "osal_mem_free"
`??osal_mem_free::?relay` SYMBOL "?relay", osal_mem_free
osal_memcpy         SYMBOL "osal_memcpy"
`??osal_memcpy::?relay` SYMBOL "?relay", osal_memcpy
osal_strlen         SYMBOL "osal_strlen"
`??osal_strlen::?relay` SYMBOL "?relay", osal_strlen
HalLcdDisplayPercentBar SYMBOL "HalLcdDisplayPercentBar"
`??HalLcdDisplayPercentBar::?relay` SYMBOL "?relay", HalLcdDisplayPercentBar
HalLcdInit          SYMBOL "HalLcdInit"
`??HalLcdInit::?relay` SYMBOL "?relay", HalLcdInit
HalLcdWriteScreen   SYMBOL "HalLcdWriteScreen"
`??HalLcdWriteScreen::?relay` SYMBOL "?relay", HalLcdWriteScreen
HalLcdWriteString   SYMBOL "HalLcdWriteString"
`??HalLcdWriteString::?relay` SYMBOL "?relay", HalLcdWriteString
HalLcdWriteStringValue SYMBOL "HalLcdWriteStringValue"
`??HalLcdWriteStringValue::?relay` SYMBOL "?relay", HalLcdWriteStringValue
HalLcdWriteStringValueValue SYMBOL "HalLcdWriteStringValueValue"
`??HalLcdWriteStringValueValue::?relay` SYMBOL "?relay", HalLcdWriteStringValueValue
HalLcdWriteValue    SYMBOL "HalLcdWriteValue"
`??HalLcdWriteValue::?relay` SYMBOL "?relay", HalLcdWriteValue
HalLcd_Convert_DZK  SYMBOL "HalLcd_Convert_DZK"
`??HalLcd_Convert_DZK::?relay` SYMBOL "?relay", HalLcd_Convert_DZK
HalLcd_HW_Clear     SYMBOL "HalLcd_HW_Clear"
`??HalLcd_HW_Clear::?relay` SYMBOL "?relay", HalLcd_HW_Clear
HalLcd_HW_Control   SYMBOL "HalLcd_HW_Control"
`??HalLcd_HW_Control::?relay` SYMBOL "?relay", HalLcd_HW_Control
HalLcd_HW_Init      SYMBOL "HalLcd_HW_Init"
`??HalLcd_HW_Init::?relay` SYMBOL "?relay", HalLcd_HW_Init
HalLcd_HW_SetContrast SYMBOL "HalLcd_HW_SetContrast"
`??HalLcd_HW_SetContrast::?relay` SYMBOL "?relay", HalLcd_HW_SetContrast
HalLcd_HW_WaitUs    SYMBOL "HalLcd_HW_WaitUs"
`??HalLcd_HW_WaitUs::?relay` SYMBOL "?relay", HalLcd_HW_WaitUs
HalLcd_HW_Write     SYMBOL "HalLcd_HW_Write"
`??HalLcd_HW_Write::?relay` SYMBOL "?relay", HalLcd_HW_Write
HalLcd_HW_WriteChar SYMBOL "HalLcd_HW_WriteChar"
`??HalLcd_HW_WriteChar::?relay` SYMBOL "?relay", HalLcd_HW_WriteChar
HalLcd_HW_WriteLine SYMBOL "HalLcd_HW_WriteLine"
`??HalLcd_HW_WriteLine::?relay` SYMBOL "?relay", HalLcd_HW_WriteLine
SET_DDRAM_ADDR      SYMBOL "SET_DDRAM_ADDR"
`??SET_DDRAM_ADDR::?relay` SYMBOL "?relay", SET_DDRAM_ADDR

        EXTERN `??_ltoa::?relay`
        FUNCTION `??_ltoa::?relay`,00H
        EXTERN `??osal_mem_alloc::?relay`
        FUNCTION `??osal_mem_alloc::?relay`,00H
        EXTERN `??osal_mem_free::?relay`
        FUNCTION `??osal_mem_free::?relay`,00H
        EXTERN `??osal_memcpy::?relay`
        FUNCTION `??osal_memcpy::?relay`,00H
        EXTERN `??osal_strlen::?relay`
        FUNCTION `??osal_strlen::?relay`,00H
        EXTERN _ltoa
        FUNCTION _ltoa,0202H
        ARGFRAME ISTACK, 0, STACK
        ARGFRAME PSTACK, 0, STACK
        ARGFRAME XSTACK, 41, STACK
        ARGFRAME IOVERLAY, 0, STATIC
        ARGFRAME DOVERLAY, 0, STATIC
        EXTERN osal_mem_alloc
        FUNCTION osal_mem_alloc,0202H
        ARGFRAME ISTACK, 0, STACK
        ARGFRAME PSTACK, 0, STACK
        ARGFRAME XSTACK, 17, STACK
        ARGFRAME IOVERLAY, 0, STATIC
        ARGFRAME DOVERLAY, 0, STATIC
        EXTERN osal_mem_free
        FUNCTION osal_mem_free,0202H
        ARGFRAME ISTACK, 0, STACK
        ARGFRAME PSTACK, 0, STACK
        ARGFRAME XSTACK, 17, STACK
        ARGFRAME IOVERLAY, 0, STATIC
        ARGFRAME DOVERLAY, 0, STATIC
        EXTERN osal_memcpy
        FUNCTION osal_memcpy,0202H
        ARGFRAME ISTACK, 0, STACK
        ARGFRAME PSTACK, 0, STACK
        ARGFRAME XSTACK, 41, STACK
        ARGFRAME IOVERLAY, 0, STATIC
        ARGFRAME DOVERLAY, 0, STATIC
        EXTERN osal_strlen
        FUNCTION osal_strlen,0202H
        ARGFRAME ISTACK, 0, STACK
        ARGFRAME PSTACK, 0, STACK
        ARGFRAME XSTACK, 38, STACK
        ARGFRAME IOVERLAY, 0, STATIC
        ARGFRAME DOVERLAY, 0, STATIC

// C:\Users\fz\Desktop\9、网络通信实验（单播、组播、广播）\2、组播_协调器\Components\hal\target\CC2530EB\hal_lcd.c
//    1 /**************************************************************************************************
//    2   Filename:       hal_lcd.c
//    3   Revised:        $Date: 2010-8-31$
//    4   Author:         $outman from feibit.com$
//    5 
//    6   Description:    This file contains the interface to the HAL LCD Service. 
//    7 
//    8   IMPORTANT:   THE ORIGINAL CODE IS FROM TI, AND THE FONTS LIB AND 
//    9                       RELATED CODE IS WRITTEN BY WWW.FEIBIT.COM
//   10 
//   11 
//   12   Copyright 2007 - 2009 Texas Instruments Incorporated. All rights reserved.
//   13 
//   14   IMPORTANT: Your use of this Software is limited to those specific rights
//   15   granted under the terms of a software license agreement between the user
//   16   who downloaded the software, his/her employer (which must be your employer)
//   17   and Texas Instruments Incorporated (the "License").  You may not use this
//   18   Software unless you agree to abide by the terms of the License. The License
//   19   limits your use, and you acknowledge, that the Software may not be modified,
//   20   copied or distributed unless embedded on a Texas Instruments microcontroller
//   21   or used solely and exclusively in conjunction with a Texas Instruments radio
//   22   frequency transceiver, which is integrated into your product.  Other than for
//   23   the foregoing purpose, you may not use, reproduce, copy, prepare derivative
//   24   works of, modify, distribute, perform, display or sell this Software and/or
//   25   its documentation for any purpose.
//   26 
//   27   YOU FURTHER ACKNOWLEDGE AND AGREE THAT THE SOFTWARE AND DOCUMENTATION ARE
//   28   PROVIDED AS IS?WITHOUT WARRANTY OF ANY KIND, EITHER EXPRESS OR IMPLIED,
//   29   INCLUDING WITHOUT LIMITATION, ANY WARRANTY OF MERCHANTABILITY, TITLE,
//   30   NON-INFRINGEMENT AND FITNESS FOR A PARTICULAR PURPOSE. IN NO EVENT SHALL
//   31   TEXAS INSTRUMENTS OR ITS LICENSORS BE LIABLE OR OBLIGATED UNDER CONTRACT,
//   32   NEGLIGENCE, STRICT LIABILITY, CONTRIBUTION, BREACH OF WARRANTY, OR OTHER
//   33   LEGAL EQUITABLE THEORY ANY DIRECT OR INDIRECT DAMAGES OR EXPENSES
//   34   INCLUDING BUT NOT LIMITED TO ANY INCIDENTAL, SPECIAL, INDIRECT, PUNITIVE
//   35   OR CONSEQUENTIAL DAMAGES, LOST PROFITS OR LOST DATA, COST OF PROCUREMENT
//   36   OF SUBSTITUTE GOODS, TECHNOLOGY, SERVICES, OR ANY CLAIMS BY THIRD PARTIES
//   37   (INCLUDING BUT NOT LIMITED TO ANY DEFENSE THEREOF), OR OTHER SIMILAR COSTS.
//   38 
//   39   Should you have any questions regarding your right to use this Software,
//   40   contact Texas Instruments Incorporated at www.TI.com.
//   41 **************************************************************************************************/
//   42 
//   43 /**************************************************************************************************
//   44  *                                           INCLUDES
//   45  **************************************************************************************************/
//   46 #include "hal_types.h"
//   47 #include "hal_lcd.h"

        ASEGN SFR_AN:DATA:NOROOT,080H
// union <unnamed> volatile __sfr _A_P0
_A_P0:
        DATA8
        DS 1

        ASEGN SFR_AN:DATA:NOROOT,090H
// union <unnamed> volatile __sfr _A_P1
_A_P1:
        DATA8
        DS 1

        ASEGN SFR_AN:DATA:NOROOT,0f1H
// unsigned char volatile __sfr PERCFG
PERCFG:
        DATA8
        DS 1

        ASEGN SFR_AN:DATA:NOROOT,0f3H
// unsigned char volatile __sfr P0SEL
P0SEL:
        DATA8
        DS 1

        ASEGN SFR_AN:DATA:NOROOT,0f4H
// unsigned char volatile __sfr P1SEL
P1SEL:
        DATA8
        DS 1

        ASEGN SFR_AN:DATA:NOROOT,0f8H
// union <unnamed> volatile __sfr _A_U1CSR
_A_U1CSR:
        DATA8
        DS 1

        ASEGN SFR_AN:DATA:NOROOT,0f9H
// unsigned char volatile __sfr U1DBUF
U1DBUF:
        DATA8
        DS 1

        ASEGN SFR_AN:DATA:NOROOT,0faH
// unsigned char volatile __sfr U1BAUD
U1BAUD:
        DATA8
        DS 1

        ASEGN SFR_AN:DATA:NOROOT,0fbH
// unsigned char volatile __sfr U1UCR
U1UCR:
        DATA8
        DS 1

        ASEGN SFR_AN:DATA:NOROOT,0fcH
// unsigned char volatile __sfr U1GCR
U1GCR:
        DATA8
        DS 1

        ASEGN SFR_AN:DATA:NOROOT,0fdH
// unsigned char volatile __sfr P0DIR
P0DIR:
        DATA8
        DS 1

        ASEGN SFR_AN:DATA:NOROOT,0feH
// unsigned char volatile __sfr P1DIR
P1DIR:
        DATA8
        DS 1
//   48 #include "OSAL.h"
//   49 #include "OnBoard.h"
//   50 #include "hal_assert.h"
//   51 
//   52 #if defined (ZTOOL_P1) || defined (ZTOOL_P2)
//   53   #include "DebugTrace.h"
//   54 #endif
//   55 
//   56 /**************************************************************************************************
//   57  *                                          CONSTANTS
//   58  **************************************************************************************************/
//   59 /*
//   60   LCD pins
//   61 
//   62   //control
//   63   P0.0 - LCD_MODE
//   64   P1.1 - LCD_FLASH_RESET
//   65   P1.2 - LCD_CS
//   66 
//   67   //spi
//   68   P1.5 - CLK
//   69   P1.6 - MOSI
//   70   P1.7 - MISO
//   71 */
//   72 
//   73 /* 30/8/2010 ++ by feibit */
//   74 
//   75 #define BIT0              0x01
//   76 #define BIT1              0x02
//   77 #define BIT2              0x04
//   78 #define BIT3              0x08
//   79 #define BIT4              0x10
//   80 #define BIT5              0x20
//   81 #define BIT6              0x40
//   82 #define BIT7              0x80
//   83 
//   84 /* The ASCII fonts library, the matrix size is w*h = 8*12, created by outman from feibit.com */

        RSEG CODE_C:CODE:REORDER:NOROOT(0)
        DATA8
//   85 __code const uint8 ASCIITAB_DZK[]=
ASCIITAB_DZK:
        DB 0
        DB 0
        DB 0
        DB 0
        DB 0
        DB 0
        DB 0
        DB 0
        DB 0
        DB 0
        DB 0
        DB 0
        DB 0
        DB 48
        DB 120
        DB 120
        DB 120
        DB 48
        DB 48
        DB 0
        DB 48
        DB 48
        DB 0
        DB 0
        DB 0
        DB 0
        DB 102
        DB 102
        DB 102
        DB 36
        DB 0
        DB 0
        DB 0
        DB 0
        DB 0
        DB 0
        DB 0
        DB 0
        DB 108
        DB 108
        DB 254
        DB 108
        DB 108
        DB 108
        DB 254
        DB 108
        DB 108
        DB 0
        DB 0
        DB 48
        DB 48
        DB 124
        DB 192
        DB 192
        DB 120
        DB 12
        DB 12
        DB 248
        DB 48
        DB 48
        DB 0
        DB 0
        DB 0
        DB 0
        DB 196
        DB 204
        DB 24
        DB 48
        DB 96
        DB 204
        DB 140
        DB 0
        DB 0
        DB 0
        DB 112
        DB 216
        DB 216
        DB 112
        DB 250
        DB 222
        DB 204
        DB 220
        DB 118
        DB 0
        DB 0
        DB 0
        DB 48
        DB 48
        DB 48
        DB 96
        DB 0
        DB 0
        DB 0
        DB 0
        DB 0
        DB 0
        DB 0
        DB 0
        DB 12
        DB 24
        DB 48
        DB 96
        DB 96
        DB 96
        DB 48
        DB 24
        DB 12
        DB 0
        DB 0
        DB 0
        DB 96
        DB 48
        DB 24
        DB 12
        DB 12
        DB 12
        DB 24
        DB 48
        DB 96
        DB 0
        DB 0
        DB 0
        DB 0
        DB 0
        DB 102
        DB 60
        DB 255
        DB 60
        DB 102
        DB 0
        DB 0
        DB 0
        DB 0
        DB 0
        DB 0
        DB 0
        DB 24
        DB 24
        DB 126
        DB 24
        DB 24
        DB 0
        DB 0
        DB 0
        DB 0
        DB 0
        DB 0
        DB 0
        DB 0
        DB 0
        DB 0
        DB 0
        DB 0
        DB 56
        DB 56
        DB 96
        DB 0
        DB 0
        DB 0
        DB 0
        DB 0
        DB 0
        DB 254
        DB 0
        DB 0
        DB 0
        DB 0
        DB 0
        DB 0
        DB 0
        DB 0
        DB 0
        DB 0
        DB 0
        DB 0
        DB 0
        DB 0
        DB 56
        DB 56
        DB 0
        DB 0
        DB 0
        DB 0
        DB 2
        DB 6
        DB 12
        DB 24
        DB 48
        DB 96
        DB 192
        DB 128
        DB 0
        DB 0
        DB 0
        DB 124
        DB 198
        DB 206
        DB 222
        DB 214
        DB 246
        DB 230
        DB 198
        DB 124
        DB 0
        DB 0
        DB 0
        DB 16
        DB 48
        DB 240
        DB 48
        DB 48
        DB 48
        DB 48
        DB 48
        DB 252
        DB 0
        DB 0
        DB 0
        DB 120
        DB 204
        DB 204
        DB 12
        DB 24
        DB 48
        DB 96
        DB 204
        DB 252
        DB 0
        DB 0
        DB 0
        DB 120
        DB 204
        DB 12
        DB 12
        DB 56
        DB 12
        DB 12
        DB 204
        DB 120
        DB 0
        DB 0
        DB 0
        DB 12
        DB 28
        DB 60
        DB 108
        DB 204
        DB 254
        DB 12
        DB 12
        DB 30
        DB 0
        DB 0
        DB 0
        DB 252
        DB 192
        DB 192
        DB 192
        DB 248
        DB 12
        DB 12
        DB 204
        DB 120
        DB 0
        DB 0
        DB 0
        DB 56
        DB 96
        DB 192
        DB 192
        DB 248
        DB 204
        DB 204
        DB 204
        DB 120
        DB 0
        DB 0
        DB 0
        DB 254
        DB 198
        DB 198
        DB 6
        DB 12
        DB 24
        DB 48
        DB 48
        DB 48
        DB 0
        DB 0
        DB 0
        DB 120
        DB 204
        DB 204
        DB 236
        DB 120
        DB 220
        DB 204
        DB 204
        DB 120
        DB 0
        DB 0
        DB 0
        DB 120
        DB 204
        DB 204
        DB 204
        DB 124
        DB 24
        DB 24
        DB 48
        DB 112
        DB 0
        DB 0
        DB 0
        DB 0
        DB 0
        DB 56
        DB 56
        DB 0
        DB 0
        DB 56
        DB 56
        DB 0
        DB 0
        DB 0
        DB 0
        DB 0
        DB 0
        DB 56
        DB 56
        DB 0
        DB 0
        DB 56
        DB 56
        DB 24
        DB 48
        DB 0
        DB 0
        DB 12
        DB 24
        DB 48
        DB 96
        DB 192
        DB 96
        DB 48
        DB 24
        DB 12
        DB 0
        DB 0
        DB 0
        DB 0
        DB 0
        DB 0
        DB 126
        DB 0
        DB 126
        DB 0
        DB 0
        DB 0
        DB 0
        DB 0
        DB 0
        DB 96
        DB 48
        DB 24
        DB 12
        DB 6
        DB 12
        DB 24
        DB 48
        DB 96
        DB 0
        DB 0
        DB 0
        DB 120
        DB 204
        DB 12
        DB 24
        DB 48
        DB 48
        DB 0
        DB 48
        DB 48
        DB 0
        DB 0
        DB 0
        DB 124
        DB 198
        DB 198
        DB 222
        DB 222
        DB 222
        DB 192
        DB 192
        DB 124
        DB 0
        DB 0
        DB 0
        DB 48
        DB 120
        DB 204
        DB 204
        DB 204
        DB 252
        DB 204
        DB 204
        DB 204
        DB 0
        DB 0
        DB 0
        DB 252
        DB 102
        DB 102
        DB 102
        DB 124
        DB 102
        DB 102
        DB 102
        DB 252
        DB 0
        DB 0
        DB 0
        DB 60
        DB 102
        DB 198
        DB 192
        DB 192
        DB 192
        DB 198
        DB 102
        DB 60
        DB 0
        DB 0
        DB 0
        DB 248
        DB 108
        DB 102
        DB 102
        DB 102
        DB 102
        DB 102
        DB 108
        DB 248
        DB 0
        DB 0
        DB 0
        DB 254
        DB 98
        DB 96
        DB 100
        DB 124
        DB 100
        DB 96
        DB 98
        DB 254
        DB 0
        DB 0
        DB 0
        DB 254
        DB 102
        DB 98
        DB 100
        DB 124
        DB 100
        DB 96
        DB 96
        DB 240
        DB 0
        DB 0
        DB 0
        DB 60
        DB 102
        DB 198
        DB 192
        DB 192
        DB 206
        DB 198
        DB 102
        DB 62
        DB 0
        DB 0
        DB 0
        DB 204
        DB 204
        DB 204
        DB 204
        DB 252
        DB 204
        DB 204
        DB 204
        DB 204
        DB 0
        DB 0
        DB 0
        DB 120
        DB 48
        DB 48
        DB 48
        DB 48
        DB 48
        DB 48
        DB 48
        DB 120
        DB 0
        DB 0
        DB 0
        DB 30
        DB 12
        DB 12
        DB 12
        DB 12
        DB 204
        DB 204
        DB 204
        DB 120
        DB 0
        DB 0
        DB 0
        DB 230
        DB 102
        DB 108
        DB 108
        DB 120
        DB 108
        DB 108
        DB 102
        DB 230
        DB 0
        DB 0
        DB 0
        DB 240
        DB 96
        DB 96
        DB 96
        DB 96
        DB 98
        DB 102
        DB 102
        DB 254
        DB 0
        DB 0
        DB 0
        DB 198
        DB 238
        DB 254
        DB 254
        DB 214
        DB 198
        DB 198
        DB 198
        DB 198
        DB 0
        DB 0
        DB 0
        DB 198
        DB 198
        DB 230
        DB 246
        DB 254
        DB 222
        DB 206
        DB 198
        DB 198
        DB 0
        DB 0
        DB 0
        DB 56
        DB 108
        DB 198
        DB 198
        DB 198
        DB 198
        DB 198
        DB 108
        DB 56
        DB 0
        DB 0
        DB 0
        DB 252
        DB 102
        DB 102
        DB 102
        DB 124
        DB 96
        DB 96
        DB 96
        DB 240
        DB 0
        DB 0
        DB 0
        DB 56
        DB 108
        DB 198
        DB 198
        DB 198
        DB 206
        DB 222
        DB 124
        DB 12
        DB 30
        DB 0
        DB 0
        DB 252
        DB 102
        DB 102
        DB 102
        DB 124
        DB 108
        DB 102
        DB 102
        DB 230
        DB 0
        DB 0
        DB 0
        DB 120
        DB 204
        DB 204
        DB 192
        DB 112
        DB 24
        DB 204
        DB 204
        DB 120
        DB 0
        DB 0
        DB 0
        DB 252
        DB 180
        DB 48
        DB 48
        DB 48
        DB 48
        DB 48
        DB 48
        DB 120
        DB 0
        DB 0
        DB 0
        DB 204
        DB 204
        DB 204
        DB 204
        DB 204
        DB 204
        DB 204
        DB 204
        DB 120
        DB 0
        DB 0
        DB 0
        DB 204
        DB 204
        DB 204
        DB 204
        DB 204
        DB 204
        DB 204
        DB 120
        DB 48
        DB 0
        DB 0
        DB 0
        DB 198
        DB 198
        DB 198
        DB 198
        DB 214
        DB 214
        DB 108
        DB 108
        DB 108
        DB 0
        DB 0
        DB 0
        DB 204
        DB 204
        DB 204
        DB 120
        DB 48
        DB 120
        DB 204
        DB 204
        DB 204
        DB 0
        DB 0
        DB 0
        DB 204
        DB 204
        DB 204
        DB 204
        DB 120
        DB 48
        DB 48
        DB 48
        DB 120
        DB 0
        DB 0
        DB 0
        DB 254
        DB 206
        DB 152
        DB 24
        DB 48
        DB 96
        DB 98
        DB 198
        DB 254
        DB 0
        DB 0
        DB 0
        DB 60
        DB 48
        DB 48
        DB 48
        DB 48
        DB 48
        DB 48
        DB 48
        DB 60
        DB 0
        DB 0
        DB 0
        DB 0
        DB 128
        DB 192
        DB 96
        DB 48
        DB 24
        DB 12
        DB 6
        DB 2
        DB 0
        DB 0
        DB 0
        DB 60
        DB 12
        DB 12
        DB 12
        DB 12
        DB 12
        DB 12
        DB 12
        DB 60
        DB 0
        DB 0
        DB 16
        DB 56
        DB 108
        DB 198
        DB 0
        DB 0
        DB 0
        DB 0
        DB 0
        DB 0
        DB 0
        DB 0
        DB 0
        DB 0
        DB 0
        DB 0
        DB 0
        DB 0
        DB 0
        DB 0
        DB 0
        DB 0
        DB 255
        DB 0
        DB 48
        DB 48
        DB 24
        DB 0
        DB 0
        DB 0
        DB 0
        DB 0
        DB 0
        DB 0
        DB 0
        DB 0
        DB 0
        DB 0
        DB 0
        DB 0
        DB 120
        DB 12
        DB 124
        DB 204
        DB 204
        DB 118
        DB 0
        DB 0
        DB 0
        DB 224
        DB 96
        DB 96
        DB 124
        DB 102
        DB 102
        DB 102
        DB 102
        DB 220
        DB 0
        DB 0
        DB 0
        DB 0
        DB 0
        DB 0
        DB 120
        DB 204
        DB 192
        DB 192
        DB 204
        DB 120
        DB 0
        DB 0
        DB 0
        DB 28
        DB 12
        DB 12
        DB 124
        DB 204
        DB 204
        DB 204
        DB 204
        DB 118
        DB 0
        DB 0
        DB 0
        DB 0
        DB 0
        DB 0
        DB 120
        DB 204
        DB 252
        DB 192
        DB 204
        DB 120
        DB 0
        DB 0
        DB 0
        DB 56
        DB 108
        DB 96
        DB 96
        DB 248
        DB 96
        DB 96
        DB 96
        DB 240
        DB 0
        DB 0
        DB 0
        DB 0
        DB 0
        DB 0
        DB 118
        DB 204
        DB 204
        DB 204
        DB 124
        DB 12
        DB 204
        DB 0
        DB 0
        DB 224
        DB 96
        DB 96
        DB 108
        DB 118
        DB 102
        DB 102
        DB 102
        DB 230
        DB 0
        DB 0
        DB 0
        DB 24
        DB 24
        DB 0
        DB 120
        DB 24
        DB 24
        DB 24
        DB 24
        DB 126
        DB 0
        DB 0
        DB 0
        DB 12
        DB 12
        DB 0
        DB 60
        DB 12
        DB 12
        DB 12
        DB 12
        DB 204
        DB 204
        DB 0
        DB 0
        DB 224
        DB 96
        DB 96
        DB 102
        DB 108
        DB 120
        DB 108
        DB 102
        DB 230
        DB 0
        DB 0
        DB 0
        DB 120
        DB 24
        DB 24
        DB 24
        DB 24
        DB 24
        DB 24
        DB 24
        DB 126
        DB 0
        DB 0
        DB 0
        DB 0
        DB 0
        DB 0
        DB 252
        DB 214
        DB 214
        DB 214
        DB 214
        DB 198
        DB 0
        DB 0
        DB 0
        DB 0
        DB 0
        DB 0
        DB 248
        DB 204
        DB 204
        DB 204
        DB 204
        DB 204
        DB 0
        DB 0
        DB 0
        DB 0
        DB 0
        DB 0
        DB 120
        DB 204
        DB 204
        DB 204
        DB 204
        DB 120
        DB 0
        DB 0
        DB 0
        DB 0
        DB 0
        DB 0
        DB 220
        DB 102
        DB 102
        DB 102
        DB 102
        DB 124
        DB 96
        DB 240
        DB 0
        DB 0
        DB 0
        DB 0
        DB 118
        DB 204
        DB 204
        DB 204
        DB 204
        DB 124
        DB 12
        DB 0
        DB 0
        DB 0
        DB 0
        DB 0
        DB 236
        DB 110
        DB 118
        DB 96
        DB 96
        DB 240
        DB 0
        DB 0
        DB 0
        DB 0
        DB 0
        DB 0
        DB 120
        DB 204
        DB 96
        DB 24
        DB 204
        DB 120
        DB 0
        DB 0
        DB 0
        DB 0
        DB 32
        DB 96
        DB 252
        DB 96
        DB 96
        DB 96
        DB 108
        DB 56
        DB 0
        DB 0
        DB 0
        DB 0
        DB 0
        DB 0
        DB 204
        DB 204
        DB 204
        DB 204
        DB 204
        DB 118
        DB 0
        DB 0
        DB 0
        DB 0
        DB 0
        DB 0
        DB 204
        DB 204
        DB 204
        DB 204
        DB 120
        DB 48
        DB 0
        DB 0
        DB 0
        DB 0
        DB 0
        DB 0
        DB 198
        DB 198
        DB 214
        DB 214
        DB 108
        DB 108
        DB 0
        DB 0
        DB 0
        DB 0
        DB 0
        DB 0
        DB 198
        DB 108
        DB 56
        DB 56
        DB 108
        DB 198
        DB 0
        DB 0
        DB 0
        DB 0
        DB 0
        DB 0
        DB 102
        DB 102
        DB 102
        DB 102
        DB 60
        DB 12
        DB 24
        DB 0
        DB 0
        DB 0
        DB 0
        DB 0
        DB 252
        DB 140
        DB 24
        DB 96
        DB 196
        DB 252
        DB 0
        DB 0
        DB 0
        DB 28
        DB 48
        DB 48
        DB 96
        DB 192
        DB 96
        DB 48
        DB 48
        DB 28
        DB 0
        DB 0
        DB 0
        DB 24
        DB 24
        DB 24
        DB 24
        DB 0
        DB 24
        DB 24
        DB 24
        DB 24
        DB 0
        DB 0
        DB 0
        DB 224
        DB 48
        DB 48
        DB 24
        DB 12
        DB 24
        DB 48
        DB 48
        DB 224
        DB 0
        DB 0
        DB 0
        DB 115
        DB 218
        DB 206
        DB 0
        DB 0
        DB 0
        DB 0
        DB 0
        DB 0
        DB 0
        DB 0
        DB 0
        DB 0
        DB 0
        DB 16
        DB 56
        DB 108
        DB 198
        DB 198
        DB 254
        DB 0
        DB 0
//   86 {
//   87 0x00,0x00,0x00,0x00,0x00,0x00,0x00,0x00,0x00,0x00,0x00,0x00,/*""=00H*/ 
//   88 0x00,0x30,0x78,0x78,0x78,0x30,0x30,0x00,0x30,0x30,0x00,0x00,/*"!"=01H*/
//   89 0x00,0x00,0x66,0x66,0x66,0x24,0x00,0x00,0x00,0x00,0x00,0x00,/*"""=02h*/
//   90 0x00,0x00,0x6c,0x6c,0xfe,0x6c,0x6c,0x6c,0xfe,0x6c,0x6c,0x00,/*"#"=03h*/
//   91 0x00,0x30,0x30,0x7c,0xc0,0xc0,0x78,0x0c,0x0c,0xf8,0x30,0x30,/*"$"=04h*/
//   92 0x00,0x00,0x00,0x00,0xc4,0xcc,0x18,0x30,0x60,0xcc,0x8c,0x00,/*"%"=05h*/
//   93 0x00,0x00,0x70,0xd8,0xd8,0x70,0xfa,0xde,0xcc,0xdc,0x76,0x00,/*"&"=06h*/
//   94 0x00,0x00,0x30,0x30,0x30,0x60,0x00,0x00,0x00,0x00,0x00,0x00,/*"'"=07h*/
//   95 0x00,0x00,0x0c,0x18,0x30,0x60,0x60,0x60,0x30,0x18,0x0c,0x00,/*"("=08h*/
//   96 0x00,0x00,0x60,0x30,0x18,0x0c,0x0c,0x0c,0x18,0x30,0x60,0x00,/*")"=09h*/
//   97 0x00,0x00,0x00,0x00,0x66,0x3c,0xff,0x3c,0x66,0x00,0x00,0x00,/*"*"=0Ah*/
//   98 0x00,0x00,0x00,0x00,0x18,0x18,0x7e,0x18,0x18,0x00,0x00,0x00,/*"+"=0Bh*/
//   99 0x00,0x00,0x00,0x00,0x00,0x00,0x00,0x00,0x00,0x38,0x38,0x60,/*";"=0Ch*/
//  100 0x00,0x00,0x00,0x00,0x00,0x00,0xfe,0x00,0x00,0x00,0x00,0x00,/*"-"=0Dh*/
//  101 0x00,0x00,0x00,0x00,0x00,0x00,0x00,0x00,0x00,0x38,0x38,0x00,/*"."=0Eh*/
//  102 0x00,0x00,0x00,0x02,0x06,0x0c,0x18,0x30,0x60,0xc0,0x80,0x00,/*"/"=0Fh*/
//  103 0x00,0x00,0x7c,0xc6,0xce,0xde,0xd6,0xf6,0xe6,0xc6,0x7c,0x00,/*"0"=10h*/
//  104 0x00,0x00,0x10,0x30,0xf0,0x30,0x30,0x30,0x30,0x30,0xfc,0x00,/*"1"=11h*/
//  105 0x00,0x00,0x78,0xcc,0xcc,0x0c,0x18,0x30,0x60,0xcc,0xfc,0x00,/*"2"=12h*/
//  106 0x00,0x00,0x78,0xcc,0x0c,0x0c,0x38,0x0c,0x0c,0xcc,0x78,0x00,/*"3"=13h*/
//  107 0x00,0x00,0x0c,0x1c,0x3c,0x6c,0xcc,0xfe,0x0c,0x0c,0x1e,0x00,/*"4"=14h*/
//  108 0x00,0x00,0xfc,0xc0,0xc0,0xc0,0xf8,0x0c,0x0c,0xcc,0x78,0x00,/*"5"=15h*/
//  109 0x00,0x00,0x38,0x60,0xc0,0xc0,0xf8,0xcc,0xcc,0xcc,0x78,0x00,/*"6"=16h*/
//  110 0x00,0x00,0xfe,0xc6,0xc6,0x06,0x0c,0x18,0x30,0x30,0x30,0x00,/*"7"=17h*/
//  111 0x00,0x00,0x78,0xcc,0xcc,0xec,0x78,0xdc,0xcc,0xcc,0x78,0x00,/*"8"=18h*/
//  112 0x00,0x00,0x78,0xcc,0xcc,0xcc,0x7c,0x18,0x18,0x30,0x70,0x00,/*"9"=19h*/
//  113 0x00,0x00,0x00,0x00,0x38,0x38,0x00,0x00,0x38,0x38,0x00,0x00,/*":"=1Ah*/
//  114 0x00,0x00,0x00,0x00,0x38,0x38,0x00,0x00,0x38,0x38,0x18,0x30,/*";"=1Bh*/
//  115 0x00,0x00,0x0c,0x18,0x30,0x60,0xc0,0x60,0x30,0x18,0x0c,0x00,/*"<"=1Ch*/
//  116 0x00,0x00,0x00,0x00,0x00,0x7e,0x00,0x7e,0x00,0x00,0x00,0x00,/*"="=1Dh*/
//  117 0x00,0x00,0x60,0x30,0x18,0x0c,0x06,0x0c,0x18,0x30,0x60,0x00,/*">"=1Eh*/
//  118 0x00,0x00,0x78,0xcc,0x0c,0x18,0x30,0x30,0x00,0x30,0x30,0x00,/*"?"=1Fh*/
//  119 0x00,0x00,0x7c,0xc6,0xc6,0xde,0xde,0xde,0xc0,0xc0,0x7c,0x00,/*"@"=20h*/
//  120 0x00,0x00,0x30,0x78,0xcc,0xcc,0xcc,0xfc,0xcc,0xcc,0xcc,0x00,/*"A"=21h*/
//  121 0x00,0x00,0xfc,0x66,0x66,0x66,0x7c,0x66,0x66,0x66,0xfc,0x00,/*"B"=22h*/
//  122 0x00,0x00,0x3c,0x66,0xc6,0xc0,0xc0,0xc0,0xc6,0x66,0x3c,0x00,/*"C"=23h*/
//  123 0x00,0x00,0xf8,0x6c,0x66,0x66,0x66,0x66,0x66,0x6c,0xf8,0x00,/*"D"=24h*/
//  124 0x00,0x00,0xfe,0x62,0x60,0x64,0x7c,0x64,0x60,0x62,0xfe,0x00,/*"E"=25h*/
//  125 0x00,0x00,0xfe,0x66,0x62,0x64,0x7c,0x64,0x60,0x60,0xf0,0x00,/*"F"=26h*/
//  126 0x00,0x00,0x3c,0x66,0xc6,0xc0,0xc0,0xce,0xc6,0x66,0x3e,0x00,/*"G"=27h*/
//  127 0x00,0x00,0xcc,0xcc,0xcc,0xcc,0xfc,0xcc,0xcc,0xcc,0xcc,0x00,/*"h"=28h*/
//  128 0x00,0x00,0x78,0x30,0x30,0x30,0x30,0x30,0x30,0x30,0x78,0x00,/*"I"=29h*/
//  129 0x00,0x00,0x1e,0x0c,0x0c,0x0c,0x0c,0xcc,0xcc,0xcc,0x78,0x00,/*"J"=2Ah*/
//  130 0x00,0x00,0xe6,0x66,0x6c,0x6c,0x78,0x6c,0x6c,0x66,0xe6,0x00,/*"K"=2Bh*/
//  131 0x00,0x00,0xf0,0x60,0x60,0x60,0x60,0x62,0x66,0x66,0xfe,0x00,/*"L"=2Ch*/
//  132 0x00,0x00,0xc6,0xee,0xfe,0xfe,0xd6,0xc6,0xc6,0xc6,0xc6,0x00,/*"M"=2Dh*/
//  133 0x00,0x00,0xc6,0xc6,0xe6,0xf6,0xfe,0xde,0xce,0xc6,0xc6,0x00,/*"N"=2Eh*/
//  134 0x00,0x00,0x38,0x6c,0xc6,0xc6,0xc6,0xc6,0xc6,0x6c,0x38,0x00,/*"O"=2Fh*/
//  135 0x00,0x00,0xfc,0x66,0x66,0x66,0x7c,0x60,0x60,0x60,0xf0,0x00,/*"P"=30h*/
//  136 0x00,0x00,0x38,0x6c,0xc6,0xc6,0xc6,0xce,0xde,0x7c,0x0c,0x1e,/*"Q"=31h*/
//  137 0x00,0x00,0xfc,0x66,0x66,0x66,0x7c,0x6c,0x66,0x66,0xe6,0x00,/*"R"=32h*/
//  138 0x00,0x00,0x78,0xcc,0xcc,0xc0,0x70,0x18,0xcc,0xcc,0x78,0x00,/*"S"=33h*/
//  139 0x00,0x00,0xfc,0xb4,0x30,0x30,0x30,0x30,0x30,0x30,0x78,0x00,/*"T"=34h*/
//  140 0x00,0x00,0xcc,0xcc,0xcc,0xcc,0xcc,0xcc,0xcc,0xcc,0x78,0x00,/*"U"=35h*/
//  141 0x00,0x00,0xcc,0xcc,0xcc,0xcc,0xcc,0xcc,0xcc,0x78,0x30,0x00,/*"V"=36h*/
//  142 0x00,0x00,0xc6,0xc6,0xc6,0xc6,0xd6,0xd6,0x6c,0x6c,0x6c,0x00,/*"W"=37h*/
//  143 0x00,0x00,0xcc,0xcc,0xcc,0x78,0x30,0x78,0xcc,0xcc,0xcc,0x00,/*"X"=38h*/
//  144 0x00,0x00,0xcc,0xcc,0xcc,0xcc,0x78,0x30,0x30,0x30,0x78,0x00,/*"Y"=39h*/
//  145 0x00,0x00,0xfe,0xce,0x98,0x18,0x30,0x60,0x62,0xc6,0xfe,0x00,/*"Z"=3Ah*/
//  146 0x00,0x00,0x3c,0x30,0x30,0x30,0x30,0x30,0x30,0x30,0x3c,0x00,/*"["=3Bh*/
//  147 0x00,0x00,0x00,0x80,0xc0,0x60,0x30,0x18,0x0c,0x06,0x02,0x00,/*"\"=3Ch*/
//  148 0x00,0x00,0x3c,0x0c,0x0c,0x0c,0x0c,0x0c,0x0c,0x0c,0x3c,0x00,/*"]"=3Dh*/
//  149 0x00,0x10,0x38,0x6c,0xc6,0x00,0x00,0x00,0x00,0x00,0x00,0x00,/*"^"=3Eh*/
//  150 0x00,0x00,0x00,0x00,0x00,0x00,0x00,0x00,0x00,0x00,0x00,0xff,/*"_"=3Fh*/
//  151 0x00,0x30,0x30,0x18,0x00,0x00,0x00,0x00,0x00,0x00,0x00,0x00,/*"`"=40h*/
//  152 0x00,0x00,0x00,0x00,0x00,0x78,0x0c,0x7c,0xcc,0xcc,0x76,0x00,/*"a"=41h*/
//  153 0x00,0x00,0xe0,0x60,0x60,0x7c,0x66,0x66,0x66,0x66,0xdc,0x00,/*"b"=42h*/
//  154 0x00,0x00,0x00,0x00,0x00,0x78,0xcc,0xc0,0xc0,0xcc,0x78,0x00,/*"c"=43h*/
//  155 0x00,0x00,0x1c,0x0c,0x0c,0x7c,0xcc,0xcc,0xcc,0xcc,0x76,0x00,/*"d"=44h*/
//  156 0x00,0x00,0x00,0x00,0x00,0x78,0xcc,0xfc,0xc0,0xcc,0x78,0x00,/*"e"=45h*/
//  157 0x00,0x00,0x38,0x6c,0x60,0x60,0xf8,0x60,0x60,0x60,0xf0,0x00,/*"f"=46h*/
//  158 0x00,0x00,0x00,0x00,0x00,0x76,0xcc,0xcc,0xcc,0x7c,0x0c,0xcc,/*"g"=47h*/
//  159 0x00,0x00,0xe0,0x60,0x60,0x6c,0x76,0x66,0x66,0x66,0xe6,0x00,/*"h"=48h*/
//  160 0x00,0x00,0x18,0x18,0x00,0x78,0x18,0x18,0x18,0x18,0x7e,0x00,/*"i"=49h*/
//  161 0x00,0x00,0x0c,0x0c,0x00,0x3c,0x0c,0x0c,0x0c,0x0c,0xcc,0xcc,/*"j"=4Ah*/
//  162 0x00,0x00,0xe0,0x60,0x60,0x66,0x6c,0x78,0x6c,0x66,0xe6,0x00,/*"k"=4Bh*/
//  163 0x00,0x00,0x78,0x18,0x18,0x18,0x18,0x18,0x18,0x18,0x7e,0x00,/*"l"=4Ch*/
//  164 0x00,0x00,0x00,0x00,0x00,0xfc,0xd6,0xd6,0xd6,0xd6,0xc6,0x00,/*"m"=4Dh*/
//  165 0x00,0x00,0x00,0x00,0x00,0xf8,0xcc,0xcc,0xcc,0xcc,0xcc,0x00,/*"n"=4Eh*/
//  166 0x00,0x00,0x00,0x00,0x00,0x78,0xcc,0xcc,0xcc,0xcc,0x78,0x00,/*"o'=4Fh*/
//  167 0x00,0x00,0x00,0x00,0x00,0xdc,0x66,0x66,0x66,0x66,0x7c,0x60,/*"p"=50h*/
//  168 0xf0,0x00,0x00,0x00,0x00,0x76,0xcc,0xcc,0xcc,0xcc,0x7c,0x0c,/*"q"=51h*/
//  169 0x00,0x00,0x00,0x00,0x00,0xec,0x6e,0x76,0x60,0x60,0xf0,0x00,/*"r"=52h*/
//  170 0x00,0x00,0x00,0x00,0x00,0x78,0xcc,0x60,0x18,0xcc,0x78,0x00,/*"s"=53h*/
//  171 0x00,0x00,0x00,0x20,0x60,0xfc,0x60,0x60,0x60,0x6c,0x38,0x00,/*"t"=54h*/
//  172 0x00,0x00,0x00,0x00,0x00,0xcc,0xcc,0xcc,0xcc,0xcc,0x76,0x00,/*"u"=55h*/
//  173 0x00,0x00,0x00,0x00,0x00,0xcc,0xcc,0xcc,0xcc,0x78,0x30,0x00,/*"v"=56h*/
//  174 0x00,0x00,0x00,0x00,0x00,0xc6,0xc6,0xd6,0xd6,0x6c,0x6c,0x00,/*"w"=57h*/
//  175 0x00,0x00,0x00,0x00,0x00,0xc6,0x6c,0x38,0x38,0x6c,0xc6,0x00,/*"x"=58h*/
//  176 0x00,0x00,0x00,0x00,0x00,0x66,0x66,0x66,0x66,0x3c,0x0c,0x18,/*"y"=59h*/
//  177 0x00,0x00,0x00,0x00,0x00,0xfc,0x8c,0x18,0x60,0xc4,0xfc,0x00,/*"z"=5Ah*/
//  178 0x00,0x00,0x1c,0x30,0x30,0x60,0xc0,0x60,0x30,0x30,0x1c,0x00,/*"{"=5Bh*/
//  179 0x00,0x00,0x18,0x18,0x18,0x18,0x00,0x18,0x18,0x18,0x18,0x00,/*"|"=5Ch*/
//  180 0x00,0x00,0xe0,0x30,0x30,0x18,0x0c,0x18,0x30,0x30,0xe0,0x00,/*"}"=5Dh*/
//  181 0x00,0x00,0x73,0xda,0xce,0x00,0x00,0x00,0x00,0x00,0x00,0x00,           
//  182 0x00,0x00,0x00,0x00,0x10,0x38,0x6c,0xc6,0xc6,0xfe,0x00,0x00,/*"~"=5Fh*/
//  183 };
//  184  
//  185 /* LCD Control lines */
//  186 #define HAL_LCD_MODE_PORT 0
//  187 #define HAL_LCD_MODE_PIN  0
//  188 
//  189 #define HAL_LCD_RESET_PORT 1
//  190 #define HAL_LCD_RESET_PIN  1
//  191 
//  192 #define HAL_LCD_CS_PORT 1
//  193 #define HAL_LCD_CS_PIN  2
//  194 
//  195 /* LCD SPI lines */
//  196 #define HAL_LCD_CLK_PORT 1
//  197 #define HAL_LCD_CLK_PIN  5
//  198 
//  199 #define HAL_LCD_MOSI_PORT 1
//  200 #define HAL_LCD_MOSI_PIN  6
//  201 
//  202 /*No output data comes from LCD 30/8/2010 ++ by feibit */
//  203 //#define HAL_LCD_MISO_PORT 1
//  204 //#define HAL_LCD_MISO_PIN  7
//  205 
//  206 /* LCD backlight control pin */
//  207 #define HAL_LCD_BK_PORT 0
//  208 #define HAL_LCD_BK_PIN  7
//  209 
//  210 /* SPI settings */
//  211 #define HAL_SPI_CLOCK_POL_LO       0x00
//  212 #define HAL_SPI_CLOCK_PHA_0        0x00
//  213 #define HAL_SPI_TRANSFER_MSB_FIRST 0x20
//  214 
//  215 /* LCD lines */
//  216 #define LCD_MAX_LINE_COUNT              3
//  217 #define LCD_MAX_LINE_LENGTH             16
//  218 #define LCD_MAX_BUF                     25
//  219 
//  220 /* Defines for HW LCD */
//  221 
//  222 /**************************************************************************************************
//  223  *                                           MACROS
//  224  **************************************************************************************************/
//  225 
//  226 #define HAL_IO_SET(port, pin, val)        HAL_IO_SET_PREP(port, pin, val)
//  227 #define HAL_IO_SET_PREP(port, pin, val)   st( P##port##_##pin## = val; )
//  228 
//  229 #define HAL_CONFIG_IO_OUTPUT(port, pin, val)      HAL_CONFIG_IO_OUTPUT_PREP(port, pin, val)
//  230 #define HAL_CONFIG_IO_OUTPUT_PREP(port, pin, val) st( P##port##SEL &= ~BV(pin); \ 
//  231                                                       P##port##_##pin## = val; \ 
//  232                                                       P##port##DIR |= BV(pin); )
//  233 
//  234 #define HAL_CONFIG_IO_PERIPHERAL(port, pin)      HAL_CONFIG_IO_PERIPHERAL_PREP(port, pin)
//  235 #define HAL_CONFIG_IO_PERIPHERAL_PREP(port, pin) st( P##port##SEL |= BV(pin); )
//  236 
//  237 
//  238 
//  239 /* SPI interface control */
//  240 #define LCD_SPI_BEGIN()     HAL_IO_SET(HAL_LCD_CS_PORT,  HAL_LCD_CS_PIN,  0); /* chip select */
//  241 #define LCD_SPI_END()                                                         \ 
//  242 {                                                                             \ 
//  243   asm("NOP");                                                                 \ 
//  244   asm("NOP");                                                                 \ 
//  245   asm("NOP");                                                                 \ 
//  246   asm("NOP");                                                                 \ 
//  247   HAL_IO_SET(HAL_LCD_CS_PORT,  HAL_LCD_CS_PIN,  1); /* chip select */         \ 
//  248 }
//  249 /* clear the received and transmit byte status, write tx data to buffer, wait till transmit done */
//  250 #define LCD_SPI_TX(x)                   { U1CSR &= ~(BV(2) | BV(1)); U1DBUF = x; while( !(U1CSR & BV(1)) ); }
//  251 #define LCD_SPI_WAIT_RXRDY()            { while(!(U1CSR & BV(1))); }
//  252 
//  253 
//  254 /* Control macros */
//  255 #define LCD_DO_WRITE()        HAL_IO_SET(HAL_LCD_MODE_PORT,  HAL_LCD_MODE_PIN,  1);
//  256 #define LCD_DO_CONTROL()      HAL_IO_SET(HAL_LCD_MODE_PORT,  HAL_LCD_MODE_PIN,  0);
//  257 
//  258 #define LCD_ACTIVATE_RESET()  HAL_IO_SET(HAL_LCD_RESET_PORT, HAL_LCD_RESET_PIN, 0);
//  259 #define LCD_RELEASE_RESET()   HAL_IO_SET(HAL_LCD_RESET_PORT, HAL_LCD_RESET_PIN, 1);
//  260 
//  261 #define CONTRAST_CTRL_REGISTER          0x81
//  262 
//  263 /**************************************************************************************************
//  264  *                                       GLOBAL VARIABLES
//  265  **************************************************************************************************/

        RSEG XDATA_Z:XDATA:NOROOT(0)
        DATA16
//  266 static uint8 *Lcd_Line1;
Lcd_Line1:
        DS 2
        REQUIRE __INIT_XDATA_Z
//  267 
//  268 /**************************************************************************************************
//  269  *                                       FUNCTIONS - API
//  270  **************************************************************************************************/
//  271 #if (HAL_LCD == TRUE)
//  272 void HalLcd_HW_Init(void);
//  273 void HalLcd_HW_WaitUs(uint16 i);
//  274 void HalLcd_HW_Clear(void);
//  275 void HalLcd_HW_Control(uint8 cmd);
//  276 void HalLcd_HW_Write(uint8 data);
//  277 void HalLcd_HW_SetContrast(uint8 value);
//  278 void HalLcd_HW_WriteChar(uint8 line, uint8 col, char text);
//  279 void HalLcd_HW_WriteLine(uint8 line, const char *pText);
//  280 /* 30/8/2010 ++ by feibit */
//  281 void SET_DDRAM_ADDR(uint8 x, uint8 y);
//  282 uint8 HalLcd_Convert_DZK(uint8 index, uint16 addr);
//  283 
//  284 #endif //LCD
//  285 
//  286 /**************************************************************************************************
//  287  * @fn      HalLcdInit
//  288  *
//  289  * @brief   Initilize LCD Service
//  290  *
//  291  * @param   init - pointer to void that contains the initialized value
//  292  *
//  293  * @return  None
//  294  **************************************************************************************************/

        RSEG BANKED_CODE:HUGECODE:NOROOT(0)
//  295 void HalLcdInit(void)
HalLcdInit:
          CFI Block cfiBlock0 Using cfiCommon0
          CFI Function HalLcdInit
        CODE
//  296 {
        FUNCALL HalLcdInit, HalLcd_HW_Init
        LOCFRAME ISTACK, 2, STACK
        LOCFRAME PSTACK, 0, STACK
        LOCFRAME XSTACK, 0, STACK
        LOCFRAME IOVERLAY, 0, STATIC
        LOCFRAME DOVERLAY, 0, STATIC
        ARGFRAME ISTACK, 2, STACK
        ARGFRAME PSTACK, 0, STACK
        ARGFRAME XSTACK, 0, STACK
        ARGFRAME IOVERLAY, 0, STATIC
        ARGFRAME DOVERLAY, 0, STATIC
        PUSH      DPL
          CFI DPL0 Frame(CFA_SP, 4)
          CFI CFA_SP SP+-4
        PUSH      DPH
          CFI DPH0 Frame(CFA_SP, 5)
          CFI CFA_SP SP+-5
        ; Saved register size: 2
        ; Auto size: 0
//  297   Lcd_Line1 = NULL;
        MOV       DPTR,#Lcd_Line1
        CLR       A
        MOVX      @DPTR,A
        INC       DPTR
        MOVX      @DPTR,A
//  298 #if (HAL_LCD == TRUE)
//  299   HalLcd_HW_Init();
        ; Setup parameters for call to function HalLcd_HW_Init
        LCALL     `??HalLcd_HW_Init::?relay`; Banked call to: HalLcd_HW_Init
//  300 #endif
//  301 }
          CFI EndBlock cfiBlock0
        REQUIRE ?Subroutine0
        ; // Fall through to label ?Subroutine0

        RSEG BANKED_CODE:HUGECODE:NOROOT(0)
?Subroutine0:
          CFI Block cfiBlock1 Using cfiCommon0
          CFI NoFunction
          CFI CFA_SP SP+-5
          CFI DPL0 Frame(CFA_SP, 4)
          CFI DPH0 Frame(CFA_SP, 5)
        POP       DPH
          CFI CFA_SP SP+-4
          CFI DPH0 SameValue
        POP       DPL
          CFI CFA_SP SP+-3
          CFI DPL0 SameValue
        LJMP      ?BRET
          CFI EndBlock cfiBlock1
//  302 
//  303 /*************************************************************************************************
//  304  *                    LCD EMULATION FUNCTIONS
//  305  *
//  306  * Some evaluation boards are equipped with Liquid Crystal Displays
//  307  * (LCD) which may be used to display diagnostic information. These
//  308  * functions provide LCD emulation, sending the diagnostic strings
//  309  * to Z-Tool via the RS232 serial port. These functions are enabled
//  310  * when the "LCD_SUPPORTED" compiler flag is placed in the makefile.
//  311  *
//  312  * Most applications update both lines (1 and 2) of the LCD whenever
//  313  * text is posted to the device. This emulator assumes that line 1 is
//  314  * updated first (saved locally) and the formatting and send operation
//  315  * is triggered by receipt of line 2. Nothing will be transmitted if
//  316  * only line 1 is updated.
//  317  *
//  318  *************************************************************************************************/
//  319 
//  320 /* 30/8/2010 ++ by feibit */

        RSEG BANKED_CODE:HUGECODE:NOROOT(0)
//  321 void SET_DDRAM_ADDR(uint8 x, uint8 y)
SET_DDRAM_ADDR:
          CFI Block cfiBlock2 Using cfiCommon0
          CFI Function SET_DDRAM_ADDR
        CODE
//  322 {
        FUNCALL SET_DDRAM_ADDR, HalLcd_HW_Control
        LOCFRAME ISTACK, 0, STACK
        LOCFRAME PSTACK, 0, STACK
        LOCFRAME XSTACK, 9, STACK
        LOCFRAME IOVERLAY, 0, STATIC
        LOCFRAME DOVERLAY, 0, STATIC
        ARGFRAME ISTACK, 0, STACK
        ARGFRAME PSTACK, 0, STACK
        ARGFRAME XSTACK, 9, STACK
        ARGFRAME IOVERLAY, 0, STATIC
        ARGFRAME DOVERLAY, 0, STATIC
        FUNCALL SET_DDRAM_ADDR, HalLcd_HW_Control
        LOCFRAME ISTACK, 0, STACK
        LOCFRAME PSTACK, 0, STACK
        LOCFRAME XSTACK, 9, STACK
        LOCFRAME IOVERLAY, 0, STATIC
        LOCFRAME DOVERLAY, 0, STATIC
        ARGFRAME ISTACK, 0, STACK
        ARGFRAME PSTACK, 0, STACK
        ARGFRAME XSTACK, 9, STACK
        ARGFRAME IOVERLAY, 0, STATIC
        ARGFRAME DOVERLAY, 0, STATIC
        FUNCALL SET_DDRAM_ADDR, HalLcd_HW_Control
        LOCFRAME ISTACK, 0, STACK
        LOCFRAME PSTACK, 0, STACK
        LOCFRAME XSTACK, 9, STACK
        LOCFRAME IOVERLAY, 0, STATIC
        LOCFRAME DOVERLAY, 0, STATIC
        ARGFRAME ISTACK, 0, STACK
        ARGFRAME PSTACK, 0, STACK
        ARGFRAME XSTACK, 9, STACK
        ARGFRAME IOVERLAY, 0, STATIC
        ARGFRAME DOVERLAY, 0, STATIC
        MOV       A,#-0x9
        LCALL     ?BANKED_ENTER_XDATA
          CFI DPH0 load(1, XDATA, add(CFA_XSP16, literal(-1)))
          CFI DPL0 load(1, XDATA, add(CFA_XSP16, literal(-2)))
          CFI ?BRET_EXT load(1, XDATA, add(CFA_XSP16, literal(-3)))
          CFI ?RET_HIGH load(1, XDATA, add(CFA_XSP16, literal(-4)))
          CFI ?RET_LOW load(1, XDATA, add(CFA_XSP16, literal(-5)))
          CFI R7 load(1, XDATA, add(CFA_XSP16, literal(-6)))
          CFI V0 load(1, XDATA, add(CFA_XSP16, literal(-7)))
          CFI VB load(1, XDATA, add(CFA_XSP16, literal(-8)))
          CFI R6 load(1, XDATA, add(CFA_XSP16, literal(-9)))
          CFI CFA_SP SP+0
          CFI CFA_XSP16 add(XSP16, 9)
        ; Saved register size: 9
        ; Auto size: 0
        MOV       A,R1
        MOV       R6,A
        MOV       A,R2
        MOV       R7,A
//  323 	HalLcd_HW_Control(y|0xb0);
        ; Setup parameters for call to function HalLcd_HW_Control
        MOV       A,#-0x50
        ORL       A,R7
        MOV       R1,A
        LCALL     `??HalLcd_HW_Control::?relay`; Banked call to: HalLcd_HW_Control
//  324 	HalLcd_HW_Control((x >> 4)|0x10);
        ; Setup parameters for call to function HalLcd_HW_Control
        MOV       A,R6
        SWAP      A
        ANL       A,#0xf
        ORL       A,#0x10
        MOV       R1,A
        LCALL     `??HalLcd_HW_Control::?relay`; Banked call to: HalLcd_HW_Control
//  325 	HalLcd_HW_Control(x&0x0f);
        ; Setup parameters for call to function HalLcd_HW_Control
        MOV       A,#0xf
        ANL       A,R6
        LJMP      ?Subroutine2 & 0xFFFF
//  326 }
          CFI EndBlock cfiBlock2
//  327 
//  328 /**************************************************************************************************
//  329  * @fn      HalLcdWriteString
//  330  *
//  331  * @brief   Write a string to the LCD
//  332  *
//  333  * @param   str    - pointer to the string that will be displayed
//  334  *          option - display options
//  335  *
//  336  * @return  None
//  337  **************************************************************************************************/

        RSEG BANKED_CODE:HUGECODE:NOROOT(0)
//  338 void HalLcdWriteString ( char *str, uint8 option)
HalLcdWriteString:
          CFI Block cfiBlock3 Using cfiCommon0
          CFI Function HalLcdWriteString
        CODE
//  339 {
        FUNCALL HalLcdWriteString, osal_mem_alloc
        LOCFRAME ISTACK, 0, STACK
        LOCFRAME PSTACK, 0, STACK
        LOCFRAME XSTACK, 17, STACK
        LOCFRAME IOVERLAY, 0, STATIC
        LOCFRAME DOVERLAY, 0, STATIC
        ARGFRAME ISTACK, 0, STACK
        ARGFRAME PSTACK, 0, STACK
        ARGFRAME XSTACK, 17, STACK
        ARGFRAME IOVERLAY, 0, STATIC
        ARGFRAME DOVERLAY, 0, STATIC
        FUNCALL HalLcdWriteString, HalLcdWriteString
        LOCFRAME ISTACK, 0, STACK
        LOCFRAME PSTACK, 0, STACK
        LOCFRAME XSTACK, 17, STACK
        LOCFRAME IOVERLAY, 0, STATIC
        LOCFRAME DOVERLAY, 0, STATIC
        ARGFRAME ISTACK, 0, STACK
        ARGFRAME PSTACK, 0, STACK
        ARGFRAME XSTACK, 17, STACK
        ARGFRAME IOVERLAY, 0, STATIC
        ARGFRAME DOVERLAY, 0, STATIC
        FUNCALL HalLcdWriteString, osal_strlen
        LOCFRAME ISTACK, 0, STACK
        LOCFRAME PSTACK, 0, STACK
        LOCFRAME XSTACK, 17, STACK
        LOCFRAME IOVERLAY, 0, STATIC
        LOCFRAME DOVERLAY, 0, STATIC
        ARGFRAME ISTACK, 0, STACK
        ARGFRAME PSTACK, 0, STACK
        ARGFRAME XSTACK, 17, STACK
        ARGFRAME IOVERLAY, 0, STATIC
        ARGFRAME DOVERLAY, 0, STATIC
        FUNCALL HalLcdWriteString, osal_memcpy
        LOCFRAME ISTACK, 0, STACK
        LOCFRAME PSTACK, 0, STACK
        LOCFRAME XSTACK, 20, STACK
        LOCFRAME IOVERLAY, 0, STATIC
        LOCFRAME DOVERLAY, 0, STATIC
        ARGFRAME ISTACK, 0, STACK
        ARGFRAME PSTACK, 0, STACK
        ARGFRAME XSTACK, 20, STACK
        ARGFRAME IOVERLAY, 0, STATIC
        ARGFRAME DOVERLAY, 0, STATIC
        FUNCALL HalLcdWriteString, osal_strlen
        LOCFRAME ISTACK, 0, STACK
        LOCFRAME PSTACK, 0, STACK
        LOCFRAME XSTACK, 17, STACK
        LOCFRAME IOVERLAY, 0, STATIC
        LOCFRAME DOVERLAY, 0, STATIC
        ARGFRAME ISTACK, 0, STACK
        ARGFRAME PSTACK, 0, STACK
        ARGFRAME XSTACK, 17, STACK
        ARGFRAME IOVERLAY, 0, STATIC
        ARGFRAME DOVERLAY, 0, STATIC
        FUNCALL HalLcdWriteString, osal_mem_alloc
        LOCFRAME ISTACK, 0, STACK
        LOCFRAME PSTACK, 0, STACK
        LOCFRAME XSTACK, 17, STACK
        LOCFRAME IOVERLAY, 0, STATIC
        LOCFRAME DOVERLAY, 0, STATIC
        ARGFRAME ISTACK, 0, STACK
        ARGFRAME PSTACK, 0, STACK
        ARGFRAME XSTACK, 17, STACK
        ARGFRAME IOVERLAY, 0, STATIC
        ARGFRAME DOVERLAY, 0, STATIC
        FUNCALL HalLcdWriteString, osal_memcpy
        LOCFRAME ISTACK, 0, STACK
        LOCFRAME PSTACK, 0, STACK
        LOCFRAME XSTACK, 20, STACK
        LOCFRAME IOVERLAY, 0, STATIC
        LOCFRAME DOVERLAY, 0, STATIC
        ARGFRAME ISTACK, 0, STACK
        ARGFRAME PSTACK, 0, STACK
        ARGFRAME XSTACK, 20, STACK
        ARGFRAME IOVERLAY, 0, STATIC
        ARGFRAME DOVERLAY, 0, STATIC
        FUNCALL HalLcdWriteString, osal_memcpy
        LOCFRAME ISTACK, 0, STACK
        LOCFRAME PSTACK, 0, STACK
        LOCFRAME XSTACK, 20, STACK
        LOCFRAME IOVERLAY, 0, STATIC
        LOCFRAME DOVERLAY, 0, STATIC
        ARGFRAME ISTACK, 0, STACK
        ARGFRAME PSTACK, 0, STACK
        ARGFRAME XSTACK, 20, STACK
        ARGFRAME IOVERLAY, 0, STATIC
        ARGFRAME DOVERLAY, 0, STATIC
        FUNCALL HalLcdWriteString, osal_mem_free
        LOCFRAME ISTACK, 0, STACK
        LOCFRAME PSTACK, 0, STACK
        LOCFRAME XSTACK, 17, STACK
        LOCFRAME IOVERLAY, 0, STATIC
        LOCFRAME DOVERLAY, 0, STATIC
        ARGFRAME ISTACK, 0, STACK
        ARGFRAME PSTACK, 0, STACK
        ARGFRAME XSTACK, 17, STACK
        ARGFRAME IOVERLAY, 0, STATIC
        ARGFRAME DOVERLAY, 0, STATIC
        FUNCALL HalLcdWriteString, HalLcd_HW_WriteLine
        LOCFRAME ISTACK, 0, STACK
        LOCFRAME PSTACK, 0, STACK
        LOCFRAME XSTACK, 17, STACK
        LOCFRAME IOVERLAY, 0, STATIC
        LOCFRAME DOVERLAY, 0, STATIC
        ARGFRAME ISTACK, 0, STACK
        ARGFRAME PSTACK, 0, STACK
        ARGFRAME XSTACK, 17, STACK
        ARGFRAME IOVERLAY, 0, STATIC
        ARGFRAME DOVERLAY, 0, STATIC
        REQUIRE ?V0
        REQUIRE ?V1
        REQUIRE ?V2
        REQUIRE ?V3
        REQUIRE ?V4
        REQUIRE ?V5
        REQUIRE ?V6
        REQUIRE ?V7
        MOV       A,#-0x10
        LCALL     ?BANKED_ENTER_XDATA
          CFI DPH0 load(1, XDATA, add(CFA_XSP16, literal(-1)))
          CFI DPL0 load(1, XDATA, add(CFA_XSP16, literal(-2)))
          CFI ?BRET_EXT load(1, XDATA, add(CFA_XSP16, literal(-3)))
          CFI ?RET_HIGH load(1, XDATA, add(CFA_XSP16, literal(-4)))
          CFI ?RET_LOW load(1, XDATA, add(CFA_XSP16, literal(-5)))
          CFI R7 load(1, XDATA, add(CFA_XSP16, literal(-6)))
          CFI V7 load(1, XDATA, add(CFA_XSP16, literal(-7)))
          CFI V6 load(1, XDATA, add(CFA_XSP16, literal(-8)))
          CFI V5 load(1, XDATA, add(CFA_XSP16, literal(-9)))
          CFI V4 load(1, XDATA, add(CFA_XSP16, literal(-10)))
          CFI V3 load(1, XDATA, add(CFA_XSP16, literal(-11)))
          CFI V2 load(1, XDATA, add(CFA_XSP16, literal(-12)))
          CFI V1 load(1, XDATA, add(CFA_XSP16, literal(-13)))
          CFI V0 load(1, XDATA, add(CFA_XSP16, literal(-14)))
          CFI VB load(1, XDATA, add(CFA_XSP16, literal(-15)))
          CFI R6 load(1, XDATA, add(CFA_XSP16, literal(-16)))
          CFI CFA_SP SP+0
          CFI CFA_XSP16 add(XSP16, 16)
        ; Saved register size: 16
        ; Auto size: 1
        MOV       A,#-0x1
        LCALL     ?ALLOC_XSTACK8
          CFI CFA_XSP16 add(XSP16, 17)
        MOV       A,R1
        MOV       DPL,?XSP + 0
        MOV       DPH,?XSP + 1
        MOVX      @DPTR,A
        MOV       ?V6,R2
        MOV       ?V7,R3
//  340 #if (HAL_LCD == TRUE)
//  341 
//  342   uint8 strLen = 0;
//  343   uint8 totalLen = 0;
//  344   uint8 *buf;
//  345   uint8 tmpLen;
//  346 
//  347   if ( Lcd_Line1 == NULL )
        MOV       DPTR,#Lcd_Line1
        MOVX      A,@DPTR
        MOV       R0,A
        INC       DPTR
        MOVX      A,@DPTR
        MOV       R1,A
        MOV       A,R0
        ORL       A,R1
        JNZ       ??HalLcdWriteString_0
//  348   {
//  349     Lcd_Line1 = osal_mem_alloc( HAL_LCD_MAX_CHARS+1 );
        ; Setup parameters for call to function osal_mem_alloc
        MOV       R2,#0x11
        MOV       R3,#0x0
        LCALL     `??osal_mem_alloc::?relay`; Banked call to: osal_mem_alloc
        MOV       DPTR,#Lcd_Line1
        MOV       A,R2
        MOVX      @DPTR,A
        INC       DPTR
        MOV       A,R3
        MOVX      @DPTR,A
//  350     HalLcdWriteString( "TexasInstruments", 1 );
        ; Setup parameters for call to function HalLcdWriteString
        MOV       R1,#0x1
        MOV       R2,#`?<Constant "TexasInstruments">` & 0xff
        MOV       R3,#(`?<Constant "TexasInstruments">` >> 8) & 0xff
        LCALL     `??HalLcdWriteString::?relay`; Banked call to: HalLcdWriteString
//  351   }
//  352 
//  353   strLen = (uint8)osal_strlen( (char*)str );
??HalLcdWriteString_0:
        ; Setup parameters for call to function osal_strlen
        MOV       R2,?V6
        MOV       R3,?V7
        LCALL     ??Subroutine19_0 & 0xFFFF
//  354 
//  355   /* Check boundries */
//  356   if ( strLen > HAL_LCD_MAX_CHARS )
??CrossCallReturnLabel_18:
        CLR       C
        SUBB      A,#0x11
        JC        ??HalLcdWriteString_1
//  357     strLen = HAL_LCD_MAX_CHARS;
        MOV       ?V3,#0x10
//  358 
//  359   if ( option == HAL_LCD_LINE_1 )
??HalLcdWriteString_1:
        MOV       DPL,?XSP + 0
        MOV       DPH,?XSP + 1
        MOVX      A,@DPTR
        XRL       A,#0x1
        JNZ       ??HalLcdWriteString_2
//  360   {
//  361     /* Line 1 gets saved for later */
//  362     osal_memcpy( Lcd_Line1, str, strLen );
        ; Setup parameters for call to function osal_memcpy
        MOV       ?V0,?V6
        MOV       ?V1,?V7
        MOV       ?V2,#0x0
        MOV       R0,#?V0
        LCALL     ?PUSH_XSTACK_I_THREE
          CFI CFA_XSP16 add(XSP16, 20)
        MOV       R4,?V3
        MOV       R5,#0x0
        MOV       DPTR,#Lcd_Line1
        MOVX      A,@DPTR
        MOV       R2,A
        INC       DPTR
        MOVX      A,@DPTR
        LCALL     ?Subroutine7 & 0xFFFF
??CrossCallReturnLabel_20:
        LCALL     ?DEALLOC_XSTACK8
          CFI CFA_XSP16 add(XSP16, 17)
//  363     Lcd_Line1[strLen] = '\0';
        MOV       R0,?V3
        MOV       DPTR,#Lcd_Line1
        MOVX      A,@DPTR
        ADD       A,R0
        MOV       R2,A
        INC       DPTR
        MOVX      A,@DPTR
        ADDC      A,#0x0
        MOV       DPL,R2
        MOV       DPH,A
        CLR       A
        MOVX      @DPTR,A
        LJMP      ??HalLcdWriteString_3 & 0xFFFF
//  364   }
//  365   else
//  366   {
//  367     /* Line 2 triggers action */
//  368     tmpLen = (uint8)osal_strlen( (char*)Lcd_Line1 );
??HalLcdWriteString_2:
        ; Setup parameters for call to function osal_strlen
        MOV       DPTR,#Lcd_Line1
        MOVX      A,@DPTR
        MOV       R2,A
        INC       DPTR
        MOVX      A,@DPTR
        MOV       R3,A
        LCALL     `??osal_strlen::?relay`; Banked call to: osal_strlen
        MOV       A,R2
        MOV       R6,A
//  369     totalLen =  tmpLen + 1 + strLen + 1;
//  370     buf = osal_mem_alloc( totalLen );
        ; Setup parameters for call to function osal_mem_alloc
        ADD       A,?V3
        ADD       A,#0x2
        MOV       R2,A
        MOV       R3,#0x0
        LCALL     `??osal_mem_alloc::?relay`; Banked call to: osal_mem_alloc
        MOV       ?V4,R2
        MOV       ?V5,R3
//  371     if ( buf != NULL )
        MOV       A,R2
        ORL       A,R3
        JZ        ??HalLcdWriteString_3
//  372     {
//  373       /* Concatenate strings */
//  374       osal_memcpy( buf, Lcd_Line1, tmpLen );
        ; Setup parameters for call to function osal_memcpy
        MOV       DPTR,#Lcd_Line1
        MOVX      A,@DPTR
        MOV       ?V0,A
        INC       DPTR
        MOVX      A,@DPTR
        MOV       ?V1,A
        MOV       ?V2,#0x0
        MOV       R0,#?V0
        LCALL     ?PUSH_XSTACK_I_THREE
          CFI CFA_XSP16 add(XSP16, 20)
        MOV       A,R6
        MOV       R4,A
        MOV       R5,#0x0
        LCALL     ??Subroutine20_0 & 0xFFFF
??CrossCallReturnLabel_22:
        LCALL     ?DEALLOC_XSTACK8
          CFI CFA_XSP16 add(XSP16, 17)
//  375       buf[tmpLen++] = ' ';
        MOV       A,?V4
        ADD       A,R6
        MOV       DPL,A
        CLR       A
        ADDC      A,?V5
        MOV       DPH,A
        MOV       A,#0x20
        MOVX      @DPTR,A
        INC       R6
//  376       osal_memcpy( &buf[tmpLen], str, strLen );
        ; Setup parameters for call to function osal_memcpy
        MOV       ?V0,?V6
        MOV       ?V1,?V7
        MOV       R0,#?V0
        LCALL     ?PUSH_XSTACK_I_THREE
          CFI CFA_XSP16 add(XSP16, 20)
        MOV       R4,?V3
        MOV       R5,#0x0
        MOV       A,?V4
        ADD       A,R6
        MOV       R2,A
        CLR       A
        ADDC      A,?V5
        LCALL     ?Subroutine7 & 0xFFFF
??CrossCallReturnLabel_21:
        LCALL     ?DEALLOC_XSTACK8
          CFI CFA_XSP16 add(XSP16, 17)
//  377       buf[tmpLen+strLen] = '\0';
        MOV       R0,?V3
        MOV       A,R6
        ADD       A,R0
        MOV       R0,A
        CLR       A
        ADDC      A,#0x0
        MOV       R1,A
        MOV       A,?V4
        ADD       A,R0
        MOV       DPL,A
        MOV       A,?V5
        ADDC      A,R1
        MOV       DPH,A
        CLR       A
        MOVX      @DPTR,A
//  378 
//  379       /* Send it out */
//  380 #if defined (ZTOOL_P1) || defined (ZTOOL_P2)
//  381 
//  382 #if defined(SERIAL_DEBUG_SUPPORTED)
//  383       debug_str( (uint8*)buf );
//  384 #endif //LCD_SUPPORTED
//  385 
//  386 #endif //ZTOOL_P1
//  387 
//  388       /* Free mem */
//  389       osal_mem_free( buf );
        ; Setup parameters for call to function osal_mem_free
        MOV       R2,?V4
        MOV       R3,?V5
        LCALL     `??osal_mem_free::?relay`; Banked call to: osal_mem_free
//  390     }
//  391   }
//  392 
//  393   /* Display the string */
//  394   HalLcd_HW_WriteLine (option, str);
??HalLcdWriteString_3:
        ; Setup parameters for call to function HalLcd_HW_WriteLine
        MOV       R2,?V6
        MOV       R3,?V7
        MOV       DPL,?XSP + 0
        MOV       DPH,?XSP + 1
        MOVX      A,@DPTR
        MOV       R1,A
        LCALL     `??HalLcd_HW_WriteLine::?relay`; Banked call to: HalLcd_HW_WriteLine
//  395 
//  396 #endif //HAL_LCD
//  397 
//  398 }
        MOV       A,#0x1
        LCALL     ?DEALLOC_XSTACK8
          CFI CFA_XSP16 add(XSP16, 16)
        MOV       R7,#0x8
        LJMP      ?BANKED_LEAVE_XDATA
          CFI EndBlock cfiBlock3
//  399 
//  400 /**************************************************************************************************
//  401  * @fn      HalLcdWriteValue
//  402  *
//  403  * @brief   Write a value to the LCD
//  404  *
//  405  * @param   value  - value that will be displayed
//  406  *          radix  - 8, 10, 16
//  407  *          option - display options
//  408  *
//  409  * @return  None
//  410  **************************************************************************************************/

        RSEG BANKED_CODE:HUGECODE:NOROOT(0)
//  411 void HalLcdWriteValue ( uint32 value, const uint8 radix, uint8 option)
HalLcdWriteValue:
          CFI Block cfiBlock4 Using cfiCommon0
          CFI Function HalLcdWriteValue
        CODE
//  412 {
        FUNCALL HalLcdWriteValue, _ltoa
        LOCFRAME ISTACK, 0, STACK
        LOCFRAME PSTACK, 0, STACK
        LOCFRAME XSTACK, 41, STACK
        LOCFRAME IOVERLAY, 0, STATIC
        LOCFRAME DOVERLAY, 0, STATIC
        ARGFRAME ISTACK, 0, STACK
        ARGFRAME PSTACK, 0, STACK
        ARGFRAME XSTACK, 41, STACK
        ARGFRAME IOVERLAY, 0, STATIC
        ARGFRAME DOVERLAY, 0, STATIC
        FUNCALL HalLcdWriteValue, HalLcdWriteString
        LOCFRAME ISTACK, 0, STACK
        LOCFRAME PSTACK, 0, STACK
        LOCFRAME XSTACK, 39, STACK
        LOCFRAME IOVERLAY, 0, STATIC
        LOCFRAME DOVERLAY, 0, STATIC
        ARGFRAME ISTACK, 0, STACK
        ARGFRAME PSTACK, 0, STACK
        ARGFRAME XSTACK, 39, STACK
        ARGFRAME IOVERLAY, 0, STATIC
        ARGFRAME DOVERLAY, 0, STATIC
        REQUIRE ?V0
        REQUIRE ?V1
        REQUIRE ?V2
        REQUIRE ?V3
        REQUIRE ?V4
        REQUIRE ?V5
        MOV       A,#-0xe
        LCALL     ?BANKED_ENTER_XDATA
          CFI DPH0 load(1, XDATA, add(CFA_XSP16, literal(-1)))
          CFI DPL0 load(1, XDATA, add(CFA_XSP16, literal(-2)))
          CFI ?BRET_EXT load(1, XDATA, add(CFA_XSP16, literal(-3)))
          CFI ?RET_HIGH load(1, XDATA, add(CFA_XSP16, literal(-4)))
          CFI ?RET_LOW load(1, XDATA, add(CFA_XSP16, literal(-5)))
          CFI R7 load(1, XDATA, add(CFA_XSP16, literal(-6)))
          CFI V5 load(1, XDATA, add(CFA_XSP16, literal(-7)))
          CFI V4 load(1, XDATA, add(CFA_XSP16, literal(-8)))
          CFI V3 load(1, XDATA, add(CFA_XSP16, literal(-9)))
          CFI V2 load(1, XDATA, add(CFA_XSP16, literal(-10)))
          CFI V1 load(1, XDATA, add(CFA_XSP16, literal(-11)))
          CFI V0 load(1, XDATA, add(CFA_XSP16, literal(-12)))
          CFI VB load(1, XDATA, add(CFA_XSP16, literal(-13)))
          CFI R6 load(1, XDATA, add(CFA_XSP16, literal(-14)))
          CFI CFA_SP SP+0
          CFI CFA_XSP16 add(XSP16, 14)
        ; Saved register size: 14
        ; Auto size: 25
        MOV       A,#-0x19
        LCALL     ?ALLOC_XSTACK8
          CFI CFA_XSP16 add(XSP16, 39)
        MOV       A,R1
        MOV       R6,A
//  413 #if (HAL_LCD == TRUE)
//  414   uint8 buf[LCD_MAX_BUF];
//  415 
//  416   _ltoa( value, &buf[0], radix );
        ; Setup parameters for call to function _ltoa
        MOV       R0,?XSP + 0
        MOV       R1,?XSP + 1
        MOV       ?V4,R0
        MOV       ?V5,R1
        MOV       R0,#?V4
        LCALL     ?PUSH_XSTACK_I_TWO
          CFI CFA_XSP16 add(XSP16, 41)
        MOV       A,R6
        MOV       R1,A
        LCALL     ??Subroutine18_0 & 0xFFFF
??CrossCallReturnLabel_15:
        LCALL     ?DEALLOC_XSTACK8
          CFI CFA_XSP16 add(XSP16, 39)
//  417   HalLcdWriteString( (char*)buf, option );
        ; Setup parameters for call to function HalLcdWriteString
        MOV       A,#0x27
        LCALL     ?XSTACK_DISP0_8
        LCALL     ?Subroutine9 & 0xFFFF
//  418 #endif
//  419 }
??CrossCallReturnLabel_0:
        LCALL     ?DEALLOC_XSTACK8
          CFI CFA_XSP16 add(XSP16, 14)
        MOV       R7,#0x6
        LJMP      ?BANKED_LEAVE_XDATA
          CFI EndBlock cfiBlock4
//  420 
//  421 /**************************************************************************************************
//  422  * @fn      HalLcdWriteScreen
//  423  *
//  424  * @brief   Write a value to the LCD
//  425  *
//  426  * @param   line1  - string that will be displayed on line 1
//  427  *          line2  - string that will be displayed on line 2
//  428  *
//  429  * @return  None
//  430  **************************************************************************************************/

        RSEG BANKED_CODE:HUGECODE:NOROOT(0)
//  431 void HalLcdWriteScreen( char *line1, char *line2 )
HalLcdWriteScreen:
          CFI Block cfiBlock5 Using cfiCommon0
          CFI Function HalLcdWriteScreen
        CODE
//  432 {
        FUNCALL HalLcdWriteScreen, HalLcdWriteString
        LOCFRAME ISTACK, 0, STACK
        LOCFRAME PSTACK, 0, STACK
        LOCFRAME XSTACK, 9, STACK
        LOCFRAME IOVERLAY, 0, STATIC
        LOCFRAME DOVERLAY, 0, STATIC
        ARGFRAME ISTACK, 0, STACK
        ARGFRAME PSTACK, 0, STACK
        ARGFRAME XSTACK, 9, STACK
        ARGFRAME IOVERLAY, 0, STATIC
        ARGFRAME DOVERLAY, 0, STATIC
        FUNCALL HalLcdWriteScreen, HalLcdWriteString
        LOCFRAME ISTACK, 0, STACK
        LOCFRAME PSTACK, 0, STACK
        LOCFRAME XSTACK, 9, STACK
        LOCFRAME IOVERLAY, 0, STATIC
        LOCFRAME DOVERLAY, 0, STATIC
        ARGFRAME ISTACK, 0, STACK
        ARGFRAME PSTACK, 0, STACK
        ARGFRAME XSTACK, 9, STACK
        ARGFRAME IOVERLAY, 0, STATIC
        ARGFRAME DOVERLAY, 0, STATIC
        MOV       A,#-0x9
        LCALL     ?BANKED_ENTER_XDATA
          CFI DPH0 load(1, XDATA, add(CFA_XSP16, literal(-1)))
          CFI DPL0 load(1, XDATA, add(CFA_XSP16, literal(-2)))
          CFI ?BRET_EXT load(1, XDATA, add(CFA_XSP16, literal(-3)))
          CFI ?RET_HIGH load(1, XDATA, add(CFA_XSP16, literal(-4)))
          CFI ?RET_LOW load(1, XDATA, add(CFA_XSP16, literal(-5)))
          CFI R7 load(1, XDATA, add(CFA_XSP16, literal(-6)))
          CFI V0 load(1, XDATA, add(CFA_XSP16, literal(-7)))
          CFI VB load(1, XDATA, add(CFA_XSP16, literal(-8)))
          CFI R6 load(1, XDATA, add(CFA_XSP16, literal(-9)))
          CFI CFA_SP SP+0
          CFI CFA_XSP16 add(XSP16, 9)
        ; Saved register size: 9
        ; Auto size: 0
        MOV       A,R4
        MOV       R6,A
        MOV       A,R5
        MOV       R7,A
//  433 #if (HAL_LCD == TRUE)
//  434   HalLcdWriteString( line1, 1 );
        ; Setup parameters for call to function HalLcdWriteString
        MOV       R1,#0x1
        LCALL     `??HalLcdWriteString::?relay`; Banked call to: HalLcdWriteString
//  435   HalLcdWriteString( line2, 2 );
        ; Setup parameters for call to function HalLcdWriteString
        MOV       R1,#0x2
        MOV       A,R6
        MOV       R2,A
        MOV       A,R7
        MOV       R3,A
        LCALL     `??HalLcdWriteString::?relay`; Banked call to: HalLcdWriteString
//  436 #endif
//  437 }
        SJMP      ??Subroutine14_0
          CFI EndBlock cfiBlock5

        RSEG BANKED_CODE:HUGECODE:NOROOT(0)
?Subroutine2:
          CFI Block cfiBlock6 Using cfiCommon0
          CFI NoFunction
          CFI CFA_SP SP+0
          CFI CFA_XSP16 add(XSP16, 9)
          CFI VB load(1, XDATA, add(CFA_XSP16, literal(-8)))
          CFI DPL0 load(1, XDATA, add(CFA_XSP16, literal(-2)))
          CFI DPH0 load(1, XDATA, add(CFA_XSP16, literal(-1)))
          CFI R6 load(1, XDATA, add(CFA_XSP16, literal(-9)))
          CFI R7 load(1, XDATA, add(CFA_XSP16, literal(-6)))
          CFI V0 load(1, XDATA, add(CFA_XSP16, literal(-7)))
          CFI ?BRET_EXT load(1, XDATA, add(CFA_XSP16, literal(-3)))
          CFI ?RET_HIGH load(1, XDATA, add(CFA_XSP16, literal(-4)))
          CFI ?RET_LOW load(1, XDATA, add(CFA_XSP16, literal(-5)))
        MOV       R1,A
        LCALL     `??HalLcd_HW_Control::?relay`; Banked call to: HalLcd_HW_Control
          CFI EndBlock cfiBlock6
        REQUIRE ??Subroutine14_0
        ; // Fall through to label ??Subroutine14_0

        RSEG BANKED_CODE:HUGECODE:NOROOT(0)
??Subroutine14_0:
          CFI Block cfiBlock7 Using cfiCommon0
          CFI NoFunction
          CFI CFA_SP SP+0
          CFI CFA_XSP16 add(XSP16, 9)
          CFI VB load(1, XDATA, add(CFA_XSP16, literal(-8)))
          CFI DPL0 load(1, XDATA, add(CFA_XSP16, literal(-2)))
          CFI DPH0 load(1, XDATA, add(CFA_XSP16, literal(-1)))
          CFI R6 load(1, XDATA, add(CFA_XSP16, literal(-9)))
          CFI R7 load(1, XDATA, add(CFA_XSP16, literal(-6)))
          CFI V0 load(1, XDATA, add(CFA_XSP16, literal(-7)))
          CFI ?BRET_EXT load(1, XDATA, add(CFA_XSP16, literal(-3)))
          CFI ?RET_HIGH load(1, XDATA, add(CFA_XSP16, literal(-4)))
          CFI ?RET_LOW load(1, XDATA, add(CFA_XSP16, literal(-5)))
        MOV       R7,#0x1
        LJMP      ?BANKED_LEAVE_XDATA
          CFI EndBlock cfiBlock7
//  438 
//  439 /**************************************************************************************************
//  440  * @fn      HalLcdWriteStringValue
//  441  *
//  442  * @brief   Write a string followed by a value to the LCD
//  443  *
//  444  * @param   title  - Title that will be displayed before the value
//  445  *          value  - value
//  446  *          format - redix
//  447  *          line   - line number
//  448  *
//  449  * @return  None
//  450  **************************************************************************************************/

        RSEG BANKED_CODE:HUGECODE:NOROOT(0)
//  451 void HalLcdWriteStringValue( char *title, uint16 value, uint8 format, uint8 line )
HalLcdWriteStringValue:
          CFI Block cfiBlock8 Using cfiCommon0
          CFI Function HalLcdWriteStringValue
        CODE
//  452 {
        FUNCALL HalLcdWriteStringValue, osal_strlen
        LOCFRAME ISTACK, 0, STACK
        LOCFRAME PSTACK, 0, STACK
        LOCFRAME XSTACK, 38, STACK
        LOCFRAME IOVERLAY, 0, STATIC
        LOCFRAME DOVERLAY, 0, STATIC
        ARGFRAME ISTACK, 0, STACK
        ARGFRAME PSTACK, 0, STACK
        ARGFRAME XSTACK, 38, STACK
        ARGFRAME IOVERLAY, 0, STATIC
        ARGFRAME DOVERLAY, 0, STATIC
        FUNCALL HalLcdWriteStringValue, osal_memcpy
        LOCFRAME ISTACK, 0, STACK
        LOCFRAME PSTACK, 0, STACK
        LOCFRAME XSTACK, 41, STACK
        LOCFRAME IOVERLAY, 0, STATIC
        LOCFRAME DOVERLAY, 0, STATIC
        ARGFRAME ISTACK, 0, STACK
        ARGFRAME PSTACK, 0, STACK
        ARGFRAME XSTACK, 41, STACK
        ARGFRAME IOVERLAY, 0, STATIC
        ARGFRAME DOVERLAY, 0, STATIC
        FUNCALL HalLcdWriteStringValue, _ltoa
        LOCFRAME ISTACK, 0, STACK
        LOCFRAME PSTACK, 0, STACK
        LOCFRAME XSTACK, 40, STACK
        LOCFRAME IOVERLAY, 0, STATIC
        LOCFRAME DOVERLAY, 0, STATIC
        ARGFRAME ISTACK, 0, STACK
        ARGFRAME PSTACK, 0, STACK
        ARGFRAME XSTACK, 40, STACK
        ARGFRAME IOVERLAY, 0, STATIC
        ARGFRAME DOVERLAY, 0, STATIC
        FUNCALL HalLcdWriteStringValue, HalLcdWriteString
        LOCFRAME ISTACK, 0, STACK
        LOCFRAME PSTACK, 0, STACK
        LOCFRAME XSTACK, 38, STACK
        LOCFRAME IOVERLAY, 0, STATIC
        LOCFRAME DOVERLAY, 0, STATIC
        ARGFRAME ISTACK, 0, STACK
        ARGFRAME PSTACK, 0, STACK
        ARGFRAME XSTACK, 38, STACK
        ARGFRAME IOVERLAY, 0, STATIC
        ARGFRAME DOVERLAY, 0, STATIC
        REQUIRE ?V0
        REQUIRE ?V1
        REQUIRE ?V2
        REQUIRE ?V3
        REQUIRE ?V4
        MOV       A,#-0xd
        LCALL     ?BANKED_ENTER_XDATA
          CFI DPH0 load(1, XDATA, add(CFA_XSP16, literal(-1)))
          CFI DPL0 load(1, XDATA, add(CFA_XSP16, literal(-2)))
          CFI ?BRET_EXT load(1, XDATA, add(CFA_XSP16, literal(-3)))
          CFI ?RET_HIGH load(1, XDATA, add(CFA_XSP16, literal(-4)))
          CFI ?RET_LOW load(1, XDATA, add(CFA_XSP16, literal(-5)))
          CFI R7 load(1, XDATA, add(CFA_XSP16, literal(-6)))
          CFI V4 load(1, XDATA, add(CFA_XSP16, literal(-7)))
          CFI V3 load(1, XDATA, add(CFA_XSP16, literal(-8)))
          CFI V2 load(1, XDATA, add(CFA_XSP16, literal(-9)))
          CFI V1 load(1, XDATA, add(CFA_XSP16, literal(-10)))
          CFI V0 load(1, XDATA, add(CFA_XSP16, literal(-11)))
          CFI VB load(1, XDATA, add(CFA_XSP16, literal(-12)))
          CFI R6 load(1, XDATA, add(CFA_XSP16, literal(-13)))
          CFI CFA_SP SP+0
          CFI CFA_XSP16 add(XSP16, 13)
        ; Saved register size: 13
        ; Auto size: 25
        MOV       A,#-0x19
        LCALL     ?ALLOC_XSTACK8
          CFI CFA_XSP16 add(XSP16, 38)
        LCALL     ?Subroutine8 & 0xFFFF
//  453 #if (HAL_LCD == TRUE)
//  454   uint8 tmpLen;
//  455   uint8 buf[LCD_MAX_BUF];
//  456   uint32 err;
//  457 
//  458   tmpLen = (uint8)osal_strlen( (char*)title );
//  459   osal_memcpy( buf, title, tmpLen );
??CrossCallReturnLabel_16:
        ; Setup parameters for call to function osal_memcpy
        MOV       ?V2,#0x0
        MOV       R0,#?V0
        LCALL     ?PUSH_XSTACK_I_THREE
          CFI CFA_XSP16 add(XSP16, 41)
        MOV       R4,?V3
        MOV       R5,#0x0
        MOV       A,#0x3
        LCALL     ?XSTACK_DISP101_8
        LCALL     ??Subroutine20_0 & 0xFFFF
??CrossCallReturnLabel_23:
        LCALL     ?DEALLOC_XSTACK8
          CFI CFA_XSP16 add(XSP16, 38)
//  460   //buf[tmpLen] = ' ';
//  461   err = (uint32)(value);
//  462   _ltoa( err, &buf[tmpLen], format );
        ; Setup parameters for call to function _ltoa
        LCALL     ?Subroutine6 & 0xFFFF
??CrossCallReturnLabel_9:
        LCALL     ?PUSH_XSTACK_I_TWO
          CFI CFA_XSP16 add(XSP16, 40)
        LCALL     ?Subroutine10 & 0xFFFF
??CrossCallReturnLabel_11:
        LCALL     ?DEALLOC_XSTACK8
          CFI CFA_XSP16 add(XSP16, 38)
//  463   HalLcdWriteString( (char*)buf, line );		
        ; Setup parameters for call to function HalLcdWriteString
        MOV       A,#0x26
          CFI EndBlock cfiBlock8
        REQUIRE ?Subroutine3
        ; // Fall through to label ?Subroutine3
//  464 #endif
//  465 }

        RSEG BANKED_CODE:HUGECODE:NOROOT(0)
?Subroutine3:
          CFI Block cfiBlock9 Using cfiCommon0
          CFI NoFunction
          CFI CFA_SP SP+0
          CFI CFA_XSP16 add(XSP16, 38)
          CFI VB load(1, XDATA, add(CFA_XSP16, literal(-12)))
          CFI DPL0 load(1, XDATA, add(CFA_XSP16, literal(-2)))
          CFI DPH0 load(1, XDATA, add(CFA_XSP16, literal(-1)))
          CFI R6 load(1, XDATA, add(CFA_XSP16, literal(-13)))
          CFI R7 load(1, XDATA, add(CFA_XSP16, literal(-6)))
          CFI V0 load(1, XDATA, add(CFA_XSP16, literal(-11)))
          CFI V1 load(1, XDATA, add(CFA_XSP16, literal(-10)))
          CFI V2 load(1, XDATA, add(CFA_XSP16, literal(-9)))
          CFI V3 load(1, XDATA, add(CFA_XSP16, literal(-8)))
          CFI V4 load(1, XDATA, add(CFA_XSP16, literal(-7)))
          CFI ?BRET_EXT load(1, XDATA, add(CFA_XSP16, literal(-3)))
          CFI ?RET_HIGH load(1, XDATA, add(CFA_XSP16, literal(-4)))
          CFI ?RET_LOW load(1, XDATA, add(CFA_XSP16, literal(-5)))
        LCALL     ?XSTACK_DISP0_8
        LCALL     ?Subroutine9 & 0xFFFF
??CrossCallReturnLabel_1:
        LCALL     ?DEALLOC_XSTACK8
          CFI CFA_XSP16 add(XSP16, 13)
        MOV       R7,#0x5
        LJMP      ?BANKED_LEAVE_XDATA
          CFI EndBlock cfiBlock9

        RSEG BANKED_CODE:HUGECODE:NOROOT(0)
?Subroutine9:
          CFI Block cfiCond10 Using cfiCommon0
          CFI Function HalLcdWriteValue
          CFI Conditional ??CrossCallReturnLabel_0
          CFI R6 load(1, XDATA, add(CFA_XSP16, literal(-14)))
          CFI VB load(1, XDATA, add(CFA_XSP16, literal(-13)))
          CFI V0 load(1, XDATA, add(CFA_XSP16, literal(-12)))
          CFI V1 load(1, XDATA, add(CFA_XSP16, literal(-11)))
          CFI V2 load(1, XDATA, add(CFA_XSP16, literal(-10)))
          CFI V3 load(1, XDATA, add(CFA_XSP16, literal(-9)))
          CFI V4 load(1, XDATA, add(CFA_XSP16, literal(-8)))
          CFI V5 load(1, XDATA, add(CFA_XSP16, literal(-7)))
          CFI R7 load(1, XDATA, add(CFA_XSP16, literal(-6)))
          CFI ?RET_LOW load(1, XDATA, add(CFA_XSP16, literal(-5)))
          CFI ?RET_HIGH load(1, XDATA, add(CFA_XSP16, literal(-4)))
          CFI ?BRET_EXT load(1, XDATA, add(CFA_XSP16, literal(-3)))
          CFI DPL0 load(1, XDATA, add(CFA_XSP16, literal(-2)))
          CFI DPH0 load(1, XDATA, add(CFA_XSP16, literal(-1)))
          CFI CFA_SP SP+-2
          CFI CFA_XSP16 add(XSP16, 39)
          CFI Block cfiCond11 Using cfiCommon0
          CFI (cfiCond11) Function HalLcdWriteStringValue
          CFI (cfiCond11) Conditional ??CrossCallReturnLabel_1
          CFI (cfiCond11) R6 load(1, XDATA, add(CFA_XSP16, literal(-13)))
          CFI (cfiCond11) VB load(1, XDATA, add(CFA_XSP16, literal(-12)))
          CFI (cfiCond11) V0 load(1, XDATA, add(CFA_XSP16, literal(-11)))
          CFI (cfiCond11) V1 load(1, XDATA, add(CFA_XSP16, literal(-10)))
          CFI (cfiCond11) V2 load(1, XDATA, add(CFA_XSP16, literal(-9)))
          CFI (cfiCond11) V3 load(1, XDATA, add(CFA_XSP16, literal(-8)))
          CFI (cfiCond11) V4 load(1, XDATA, add(CFA_XSP16, literal(-7)))
          CFI (cfiCond11) R7 load(1, XDATA, add(CFA_XSP16, literal(-6)))
          CFI (cfiCond11) ?RET_LOW load(1, XDATA, add(CFA_XSP16, literal(-5)))
          CFI (cfiCond11) ?RET_HIGH load(1, XDATA, add(CFA_XSP16, literal(-4)))
          CFI (cfiCond11) ?BRET_EXT load(1, XDATA, add(CFA_XSP16, literal(-3)))
          CFI (cfiCond11) DPL0 load(1, XDATA, add(CFA_XSP16, literal(-2)))
          CFI (cfiCond11) DPH0 load(1, XDATA, add(CFA_XSP16, literal(-1)))
          CFI (cfiCond11) CFA_SP SP+-2
          CFI (cfiCond11) CFA_XSP16 add(XSP16, 38)
          CFI Block cfiCond12 Using cfiCommon0
          CFI (cfiCond12) Function HalLcdWriteStringValueValue
          CFI (cfiCond12) Conditional ??CrossCallReturnLabel_1
          CFI (cfiCond12) R6 load(1, XDATA, add(CFA_XSP16, literal(-13)))
          CFI (cfiCond12) VB load(1, XDATA, add(CFA_XSP16, literal(-12)))
          CFI (cfiCond12) V0 load(1, XDATA, add(CFA_XSP16, literal(-11)))
          CFI (cfiCond12) V1 load(1, XDATA, add(CFA_XSP16, literal(-10)))
          CFI (cfiCond12) V2 load(1, XDATA, add(CFA_XSP16, literal(-9)))
          CFI (cfiCond12) V3 load(1, XDATA, add(CFA_XSP16, literal(-8)))
          CFI (cfiCond12) V4 load(1, XDATA, add(CFA_XSP16, literal(-7)))
          CFI (cfiCond12) R7 load(1, XDATA, add(CFA_XSP16, literal(-6)))
          CFI (cfiCond12) ?RET_LOW load(1, XDATA, add(CFA_XSP16, literal(-5)))
          CFI (cfiCond12) ?RET_HIGH load(1, XDATA, add(CFA_XSP16, literal(-4)))
          CFI (cfiCond12) ?BRET_EXT load(1, XDATA, add(CFA_XSP16, literal(-3)))
          CFI (cfiCond12) DPL0 load(1, XDATA, add(CFA_XSP16, literal(-2)))
          CFI (cfiCond12) DPH0 load(1, XDATA, add(CFA_XSP16, literal(-1)))
          CFI (cfiCond12) CFA_SP SP+-2
          CFI (cfiCond12) CFA_XSP16 add(XSP16, 38)
          CFI Block cfiPicker13 Using cfiCommon1
          CFI (cfiPicker13) NoFunction
          CFI (cfiPicker13) Picker
        MOVX      A,@DPTR
        MOV       R1,A
        MOV       R2,?XSP + 0
        MOV       R3,?XSP + 1
        LCALL     `??HalLcdWriteString::?relay`; Banked call to: HalLcdWriteString
        MOV       A,#0x19
        RET
          CFI EndBlock cfiCond10
          CFI EndBlock cfiCond11
          CFI EndBlock cfiCond12
          CFI EndBlock cfiPicker13

        RSEG BANKED_CODE:HUGECODE:NOROOT(0)
?Subroutine6:
          CFI Block cfiCond14 Using cfiCommon0
          CFI Function HalLcdWriteStringValue
          CFI Conditional ??CrossCallReturnLabel_9
          CFI R6 load(1, XDATA, add(CFA_XSP16, literal(-13)))
          CFI VB load(1, XDATA, add(CFA_XSP16, literal(-12)))
          CFI V0 load(1, XDATA, add(CFA_XSP16, literal(-11)))
          CFI V1 load(1, XDATA, add(CFA_XSP16, literal(-10)))
          CFI V2 load(1, XDATA, add(CFA_XSP16, literal(-9)))
          CFI V3 load(1, XDATA, add(CFA_XSP16, literal(-8)))
          CFI V4 load(1, XDATA, add(CFA_XSP16, literal(-7)))
          CFI R7 load(1, XDATA, add(CFA_XSP16, literal(-6)))
          CFI ?RET_LOW load(1, XDATA, add(CFA_XSP16, literal(-5)))
          CFI ?RET_HIGH load(1, XDATA, add(CFA_XSP16, literal(-4)))
          CFI ?BRET_EXT load(1, XDATA, add(CFA_XSP16, literal(-3)))
          CFI DPL0 load(1, XDATA, add(CFA_XSP16, literal(-2)))
          CFI DPH0 load(1, XDATA, add(CFA_XSP16, literal(-1)))
          CFI CFA_SP SP+-2
          CFI CFA_XSP16 add(XSP16, 38)
          CFI Block cfiCond15 Using cfiCommon0
          CFI (cfiCond15) Function HalLcdWriteStringValueValue
          CFI (cfiCond15) Conditional ??CrossCallReturnLabel_10
          CFI (cfiCond15) R6 load(1, XDATA, add(CFA_XSP16, literal(-13)))
          CFI (cfiCond15) VB load(1, XDATA, add(CFA_XSP16, literal(-12)))
          CFI (cfiCond15) V0 load(1, XDATA, add(CFA_XSP16, literal(-11)))
          CFI (cfiCond15) V1 load(1, XDATA, add(CFA_XSP16, literal(-10)))
          CFI (cfiCond15) V2 load(1, XDATA, add(CFA_XSP16, literal(-9)))
          CFI (cfiCond15) V3 load(1, XDATA, add(CFA_XSP16, literal(-8)))
          CFI (cfiCond15) V4 load(1, XDATA, add(CFA_XSP16, literal(-7)))
          CFI (cfiCond15) R7 load(1, XDATA, add(CFA_XSP16, literal(-6)))
          CFI (cfiCond15) ?RET_LOW load(1, XDATA, add(CFA_XSP16, literal(-5)))
          CFI (cfiCond15) ?RET_HIGH load(1, XDATA, add(CFA_XSP16, literal(-4)))
          CFI (cfiCond15) ?BRET_EXT load(1, XDATA, add(CFA_XSP16, literal(-3)))
          CFI (cfiCond15) DPL0 load(1, XDATA, add(CFA_XSP16, literal(-2)))
          CFI (cfiCond15) DPH0 load(1, XDATA, add(CFA_XSP16, literal(-1)))
          CFI (cfiCond15) CFA_SP SP+-2
          CFI (cfiCond15) CFA_XSP16 add(XSP16, 38)
          CFI Block cfiPicker16 Using cfiCommon1
          CFI (cfiPicker16) NoFunction
          CFI (cfiPicker16) Picker
        MOV       R0,?V3
          CFI EndBlock cfiCond14
          CFI EndBlock cfiCond15
          CFI EndBlock cfiPicker16
        REQUIRE ??Subroutine15_0
        ; // Fall through to label ??Subroutine15_0

        RSEG BANKED_CODE:HUGECODE:NOROOT(0)
??Subroutine15_0:
          CFI Block cfiCond17 Using cfiCommon0
          CFI Function HalLcdWriteStringValueValue
          CFI Conditional ??CrossCallReturnLabel_8
          CFI R6 load(1, XDATA, add(CFA_XSP16, literal(-13)))
          CFI VB load(1, XDATA, add(CFA_XSP16, literal(-12)))
          CFI V0 load(1, XDATA, add(CFA_XSP16, literal(-11)))
          CFI V1 load(1, XDATA, add(CFA_XSP16, literal(-10)))
          CFI V2 load(1, XDATA, add(CFA_XSP16, literal(-9)))
          CFI V3 load(1, XDATA, add(CFA_XSP16, literal(-8)))
          CFI V4 load(1, XDATA, add(CFA_XSP16, literal(-7)))
          CFI R7 load(1, XDATA, add(CFA_XSP16, literal(-6)))
          CFI ?RET_LOW load(1, XDATA, add(CFA_XSP16, literal(-5)))
          CFI ?RET_HIGH load(1, XDATA, add(CFA_XSP16, literal(-4)))
          CFI ?BRET_EXT load(1, XDATA, add(CFA_XSP16, literal(-3)))
          CFI DPL0 load(1, XDATA, add(CFA_XSP16, literal(-2)))
          CFI DPH0 load(1, XDATA, add(CFA_XSP16, literal(-1)))
          CFI CFA_SP SP+-2
          CFI CFA_XSP16 add(XSP16, 38)
          CFI Block cfiCond18 Using cfiCommon0
          CFI (cfiCond18) Function HalLcdWriteStringValue
          CFI (cfiCond18) Conditional ??CrossCallReturnLabel_9
          CFI (cfiCond18) R6 load(1, XDATA, add(CFA_XSP16, literal(-13)))
          CFI (cfiCond18) VB load(1, XDATA, add(CFA_XSP16, literal(-12)))
          CFI (cfiCond18) V0 load(1, XDATA, add(CFA_XSP16, literal(-11)))
          CFI (cfiCond18) V1 load(1, XDATA, add(CFA_XSP16, literal(-10)))
          CFI (cfiCond18) V2 load(1, XDATA, add(CFA_XSP16, literal(-9)))
          CFI (cfiCond18) V3 load(1, XDATA, add(CFA_XSP16, literal(-8)))
          CFI (cfiCond18) V4 load(1, XDATA, add(CFA_XSP16, literal(-7)))
          CFI (cfiCond18) R7 load(1, XDATA, add(CFA_XSP16, literal(-6)))
          CFI (cfiCond18) ?RET_LOW load(1, XDATA, add(CFA_XSP16, literal(-5)))
          CFI (cfiCond18) ?RET_HIGH load(1, XDATA, add(CFA_XSP16, literal(-4)))
          CFI (cfiCond18) ?BRET_EXT load(1, XDATA, add(CFA_XSP16, literal(-3)))
          CFI (cfiCond18) DPL0 load(1, XDATA, add(CFA_XSP16, literal(-2)))
          CFI (cfiCond18) DPH0 load(1, XDATA, add(CFA_XSP16, literal(-1)))
          CFI (cfiCond18) CFA_SP SP+-2
          CFI (cfiCond18) CFA_XSP16 add(XSP16, 38)
          CFI Block cfiCond19 Using cfiCommon0
          CFI (cfiCond19) Function HalLcdWriteStringValueValue
          CFI (cfiCond19) Conditional ??CrossCallReturnLabel_10
          CFI (cfiCond19) R6 load(1, XDATA, add(CFA_XSP16, literal(-13)))
          CFI (cfiCond19) VB load(1, XDATA, add(CFA_XSP16, literal(-12)))
          CFI (cfiCond19) V0 load(1, XDATA, add(CFA_XSP16, literal(-11)))
          CFI (cfiCond19) V1 load(1, XDATA, add(CFA_XSP16, literal(-10)))
          CFI (cfiCond19) V2 load(1, XDATA, add(CFA_XSP16, literal(-9)))
          CFI (cfiCond19) V3 load(1, XDATA, add(CFA_XSP16, literal(-8)))
          CFI (cfiCond19) V4 load(1, XDATA, add(CFA_XSP16, literal(-7)))
          CFI (cfiCond19) R7 load(1, XDATA, add(CFA_XSP16, literal(-6)))
          CFI (cfiCond19) ?RET_LOW load(1, XDATA, add(CFA_XSP16, literal(-5)))
          CFI (cfiCond19) ?RET_HIGH load(1, XDATA, add(CFA_XSP16, literal(-4)))
          CFI (cfiCond19) ?BRET_EXT load(1, XDATA, add(CFA_XSP16, literal(-3)))
          CFI (cfiCond19) DPL0 load(1, XDATA, add(CFA_XSP16, literal(-2)))
          CFI (cfiCond19) DPH0 load(1, XDATA, add(CFA_XSP16, literal(-1)))
          CFI (cfiCond19) CFA_SP SP+-2
          CFI (cfiCond19) CFA_XSP16 add(XSP16, 38)
          CFI Block cfiPicker20 Using cfiCommon1
          CFI (cfiPicker20) NoFunction
          CFI (cfiPicker20) Picker
        MOV       DPL,?XSP + 0
        MOV       DPH,?XSP + 1
        MOV       A,DPL
        ADD       A,R0
        MOV       ?V0,A
        CLR       A
        ADDC      A,DPH
        MOV       ?V1,A
        MOV       R0,#?V0
        RET
          CFI EndBlock cfiCond17
          CFI EndBlock cfiCond18
          CFI EndBlock cfiCond19
          CFI EndBlock cfiPicker20
//  466 
//  467 /**************************************************************************************************
//  468  * @fn      HalLcdWriteStringValue
//  469  *
//  470  * @brief   Write a string followed by a value to the LCD
//  471  *
//  472  * @param   title   - Title that will be displayed before the value
//  473  *          value1  - value #1
//  474  *          format1 - redix of value #1
//  475  *          value2  - value #2
//  476  *          format2 - redix of value #2
//  477  *          line    - line number
//  478  *
//  479  * @return  None
//  480  **************************************************************************************************/

        RSEG BANKED_CODE:HUGECODE:NOROOT(0)
//  481 void HalLcdWriteStringValueValue( char *title, uint16 value1, uint8 format1,
HalLcdWriteStringValueValue:
          CFI Block cfiBlock21 Using cfiCommon0
          CFI Function HalLcdWriteStringValueValue
        CODE
//  482                                   uint16 value2, uint8 format2, uint8 line )
//  483 {
        FUNCALL HalLcdWriteStringValueValue, osal_strlen
        LOCFRAME ISTACK, 0, STACK
        LOCFRAME PSTACK, 0, STACK
        LOCFRAME XSTACK, 38, STACK
        LOCFRAME IOVERLAY, 0, STATIC
        LOCFRAME DOVERLAY, 0, STATIC
        ARGFRAME ISTACK, 0, STACK
        ARGFRAME PSTACK, 0, STACK
        ARGFRAME XSTACK, 38, STACK
        ARGFRAME IOVERLAY, 0, STATIC
        ARGFRAME DOVERLAY, 0, STATIC
        FUNCALL HalLcdWriteStringValueValue, osal_memcpy
        LOCFRAME ISTACK, 0, STACK
        LOCFRAME PSTACK, 0, STACK
        LOCFRAME XSTACK, 41, STACK
        LOCFRAME IOVERLAY, 0, STATIC
        LOCFRAME DOVERLAY, 0, STATIC
        ARGFRAME ISTACK, 0, STACK
        ARGFRAME PSTACK, 0, STACK
        ARGFRAME XSTACK, 41, STACK
        ARGFRAME IOVERLAY, 0, STATIC
        ARGFRAME DOVERLAY, 0, STATIC
        FUNCALL HalLcdWriteStringValueValue, _ltoa
        LOCFRAME ISTACK, 0, STACK
        LOCFRAME PSTACK, 0, STACK
        LOCFRAME XSTACK, 40, STACK
        LOCFRAME IOVERLAY, 0, STATIC
        LOCFRAME DOVERLAY, 0, STATIC
        ARGFRAME ISTACK, 0, STACK
        ARGFRAME PSTACK, 0, STACK
        ARGFRAME XSTACK, 40, STACK
        ARGFRAME IOVERLAY, 0, STATIC
        ARGFRAME DOVERLAY, 0, STATIC
        FUNCALL HalLcdWriteStringValueValue, osal_strlen
        LOCFRAME ISTACK, 0, STACK
        LOCFRAME PSTACK, 0, STACK
        LOCFRAME XSTACK, 38, STACK
        LOCFRAME IOVERLAY, 0, STATIC
        LOCFRAME DOVERLAY, 0, STATIC
        ARGFRAME ISTACK, 0, STACK
        ARGFRAME PSTACK, 0, STACK
        ARGFRAME XSTACK, 38, STACK
        ARGFRAME IOVERLAY, 0, STATIC
        ARGFRAME DOVERLAY, 0, STATIC
        FUNCALL HalLcdWriteStringValueValue, _ltoa
        LOCFRAME ISTACK, 0, STACK
        LOCFRAME PSTACK, 0, STACK
        LOCFRAME XSTACK, 40, STACK
        LOCFRAME IOVERLAY, 0, STATIC
        LOCFRAME DOVERLAY, 0, STATIC
        ARGFRAME ISTACK, 0, STACK
        ARGFRAME PSTACK, 0, STACK
        ARGFRAME XSTACK, 40, STACK
        ARGFRAME IOVERLAY, 0, STATIC
        ARGFRAME DOVERLAY, 0, STATIC
        FUNCALL HalLcdWriteStringValueValue, HalLcdWriteString
        LOCFRAME ISTACK, 0, STACK
        LOCFRAME PSTACK, 0, STACK
        LOCFRAME XSTACK, 38, STACK
        LOCFRAME IOVERLAY, 0, STATIC
        LOCFRAME DOVERLAY, 0, STATIC
        ARGFRAME ISTACK, 0, STACK
        ARGFRAME PSTACK, 0, STACK
        ARGFRAME XSTACK, 38, STACK
        ARGFRAME IOVERLAY, 0, STATIC
        ARGFRAME DOVERLAY, 0, STATIC
        REQUIRE ?V0
        REQUIRE ?V1
        REQUIRE ?V2
        REQUIRE ?V3
        REQUIRE ?V4
        MOV       A,#-0xd
        LCALL     ?BANKED_ENTER_XDATA
          CFI DPH0 load(1, XDATA, add(CFA_XSP16, literal(-1)))
          CFI DPL0 load(1, XDATA, add(CFA_XSP16, literal(-2)))
          CFI ?BRET_EXT load(1, XDATA, add(CFA_XSP16, literal(-3)))
          CFI ?RET_HIGH load(1, XDATA, add(CFA_XSP16, literal(-4)))
          CFI ?RET_LOW load(1, XDATA, add(CFA_XSP16, literal(-5)))
          CFI R7 load(1, XDATA, add(CFA_XSP16, literal(-6)))
          CFI V4 load(1, XDATA, add(CFA_XSP16, literal(-7)))
          CFI V3 load(1, XDATA, add(CFA_XSP16, literal(-8)))
          CFI V2 load(1, XDATA, add(CFA_XSP16, literal(-9)))
          CFI V1 load(1, XDATA, add(CFA_XSP16, literal(-10)))
          CFI V0 load(1, XDATA, add(CFA_XSP16, literal(-11)))
          CFI VB load(1, XDATA, add(CFA_XSP16, literal(-12)))
          CFI R6 load(1, XDATA, add(CFA_XSP16, literal(-13)))
          CFI CFA_SP SP+0
          CFI CFA_XSP16 add(XSP16, 13)
        ; Saved register size: 13
        ; Auto size: 25
        MOV       A,#-0x19
        LCALL     ?ALLOC_XSTACK8
          CFI CFA_XSP16 add(XSP16, 38)
        LCALL     ?Subroutine8 & 0xFFFF
//  484 
//  485 #if (HAL_LCD == TRUE)
//  486 
//  487   uint8 tmpLen;
//  488   uint8 buf[LCD_MAX_BUF];
//  489   uint32 err;
//  490 
//  491   tmpLen = (uint8)osal_strlen( (char*)title );
//  492   if ( tmpLen )
??CrossCallReturnLabel_17:
        JZ        ??HalLcdWriteStringValueValue_0
//  493   {
//  494     osal_memcpy( buf, title, tmpLen );
        ; Setup parameters for call to function osal_memcpy
        MOV       ?V2,#0x0
        MOV       R0,#?V0
        LCALL     ?PUSH_XSTACK_I_THREE
          CFI CFA_XSP16 add(XSP16, 41)
        MOV       R4,?V3
        MOV       R5,#0x0
        MOV       A,#0x3
        LCALL     ?XSTACK_DISP101_8
        LCALL     ??Subroutine20_0 & 0xFFFF
//  495     //buf[tmpLen++] = ' ';
//  496   }
??CrossCallReturnLabel_24:
        LCALL     ?DEALLOC_XSTACK8
          CFI CFA_XSP16 add(XSP16, 38)
//  497 
//  498   err = (uint32)(value1);
//  499   _ltoa( err, &buf[tmpLen], format1 );
??HalLcdWriteStringValueValue_0:
        ; Setup parameters for call to function _ltoa
        LCALL     ?Subroutine6 & 0xFFFF
??CrossCallReturnLabel_10:
        LCALL     ?PUSH_XSTACK_I_TWO
          CFI CFA_XSP16 add(XSP16, 40)
        LCALL     ?Subroutine10 & 0xFFFF
??CrossCallReturnLabel_12:
        LCALL     ?DEALLOC_XSTACK8
          CFI CFA_XSP16 add(XSP16, 38)
//  500   tmpLen = (uint8)osal_strlen( (char*)buf );
        ; Setup parameters for call to function osal_strlen
        MOV       R2,?XSP + 0
        MOV       R3,?XSP + 1
        LCALL     ??Subroutine19_0 & 0xFFFF
//  501 
//  502   buf[tmpLen++] = ',';
??CrossCallReturnLabel_19:
        MOV       R0,A
        MOV       DPL,?XSP + 0
        MOV       DPH,?XSP + 1
        MOV       A,DPL
        ADD       A,R2
        MOV       DPL,A
        CLR       A
        ADDC      A,DPH
        MOV       DPH,A
        MOV       A,#0x2c
        MOVX      @DPTR,A
//  503   buf[tmpLen++] = ' ';
        INC       R0
        LCALL     ?Subroutine11 & 0xFFFF
??CrossCallReturnLabel_2:
        MOV       A,#0x20
        MOVX      @DPTR,A
//  504   err = (uint32)(value2);
//  505   _ltoa( err, &buf[tmpLen], format2 );
        ; Setup parameters for call to function _ltoa
        INC       R0
        LCALL     ??Subroutine15_0 & 0xFFFF
??CrossCallReturnLabel_8:
        LCALL     ?PUSH_XSTACK_I_TWO
          CFI CFA_XSP16 add(XSP16, 40)
        MOV       A,#0x2a
        LCALL     ?XSTACK_DISP0_8
        MOVX      A,@DPTR
        MOV       R1,A
        MOV       A,#0x28
        LCALL     ?XSTACK_DISP0_8
        MOVX      A,@DPTR
        MOV       ?V0,A
        INC       DPTR
        MOVX      A,@DPTR
        MOV       R2,?V0
        MOV       R3,A
        LCALL     ??Subroutine16_0 & 0xFFFF
??CrossCallReturnLabel_13:
        LCALL     ?DEALLOC_XSTACK8
          CFI CFA_XSP16 add(XSP16, 38)
//  506 
//  507   HalLcdWriteString( (char *)buf, line );		
        ; Setup parameters for call to function HalLcdWriteString
        MOV       A,#0x29
        LJMP      ?Subroutine3 & 0xFFFF
//  508 
//  509 #endif
//  510 }
          CFI EndBlock cfiBlock21

        RSEG BANKED_CODE:HUGECODE:NOROOT(0)
?Subroutine10:
          CFI Block cfiCond22 Using cfiCommon0
          CFI Function HalLcdWriteStringValue
          CFI Conditional ??CrossCallReturnLabel_11
          CFI R6 load(1, XDATA, add(CFA_XSP16, literal(-13)))
          CFI VB load(1, XDATA, add(CFA_XSP16, literal(-12)))
          CFI V0 load(1, XDATA, add(CFA_XSP16, literal(-11)))
          CFI V1 load(1, XDATA, add(CFA_XSP16, literal(-10)))
          CFI V2 load(1, XDATA, add(CFA_XSP16, literal(-9)))
          CFI V3 load(1, XDATA, add(CFA_XSP16, literal(-8)))
          CFI V4 load(1, XDATA, add(CFA_XSP16, literal(-7)))
          CFI R7 load(1, XDATA, add(CFA_XSP16, literal(-6)))
          CFI ?RET_LOW load(1, XDATA, add(CFA_XSP16, literal(-5)))
          CFI ?RET_HIGH load(1, XDATA, add(CFA_XSP16, literal(-4)))
          CFI ?BRET_EXT load(1, XDATA, add(CFA_XSP16, literal(-3)))
          CFI DPL0 load(1, XDATA, add(CFA_XSP16, literal(-2)))
          CFI DPH0 load(1, XDATA, add(CFA_XSP16, literal(-1)))
          CFI CFA_SP SP+-2
          CFI CFA_XSP16 add(XSP16, 40)
          CFI Block cfiCond23 Using cfiCommon0
          CFI (cfiCond23) Function HalLcdWriteStringValueValue
          CFI (cfiCond23) Conditional ??CrossCallReturnLabel_12
          CFI (cfiCond23) R6 load(1, XDATA, add(CFA_XSP16, literal(-13)))
          CFI (cfiCond23) VB load(1, XDATA, add(CFA_XSP16, literal(-12)))
          CFI (cfiCond23) V0 load(1, XDATA, add(CFA_XSP16, literal(-11)))
          CFI (cfiCond23) V1 load(1, XDATA, add(CFA_XSP16, literal(-10)))
          CFI (cfiCond23) V2 load(1, XDATA, add(CFA_XSP16, literal(-9)))
          CFI (cfiCond23) V3 load(1, XDATA, add(CFA_XSP16, literal(-8)))
          CFI (cfiCond23) V4 load(1, XDATA, add(CFA_XSP16, literal(-7)))
          CFI (cfiCond23) R7 load(1, XDATA, add(CFA_XSP16, literal(-6)))
          CFI (cfiCond23) ?RET_LOW load(1, XDATA, add(CFA_XSP16, literal(-5)))
          CFI (cfiCond23) ?RET_HIGH load(1, XDATA, add(CFA_XSP16, literal(-4)))
          CFI (cfiCond23) ?BRET_EXT load(1, XDATA, add(CFA_XSP16, literal(-3)))
          CFI (cfiCond23) DPL0 load(1, XDATA, add(CFA_XSP16, literal(-2)))
          CFI (cfiCond23) DPH0 load(1, XDATA, add(CFA_XSP16, literal(-1)))
          CFI (cfiCond23) CFA_SP SP+-2
          CFI (cfiCond23) CFA_XSP16 add(XSP16, 40)
          CFI Block cfiPicker24 Using cfiCommon1
          CFI (cfiPicker24) NoFunction
          CFI (cfiPicker24) Picker
        MOV       R1,?V4
        MOV       ?V0,R6
        MOV       ?V1,R7
        MOV       R2,?V0
        MOV       R3,?V1
          CFI EndBlock cfiCond22
          CFI EndBlock cfiCond23
          CFI EndBlock cfiPicker24
        REQUIRE ??Subroutine16_0
        ; // Fall through to label ??Subroutine16_0

        RSEG BANKED_CODE:HUGECODE:NOROOT(0)
??Subroutine16_0:
          CFI Block cfiCond25 Using cfiCommon0
          CFI Function HalLcdWriteStringValueValue
          CFI Conditional ??CrossCallReturnLabel_13
          CFI R6 load(1, XDATA, add(CFA_XSP16, literal(-13)))
          CFI VB load(1, XDATA, add(CFA_XSP16, literal(-12)))
          CFI V0 load(1, XDATA, add(CFA_XSP16, literal(-11)))
          CFI V1 load(1, XDATA, add(CFA_XSP16, literal(-10)))
          CFI V2 load(1, XDATA, add(CFA_XSP16, literal(-9)))
          CFI V3 load(1, XDATA, add(CFA_XSP16, literal(-8)))
          CFI V4 load(1, XDATA, add(CFA_XSP16, literal(-7)))
          CFI R7 load(1, XDATA, add(CFA_XSP16, literal(-6)))
          CFI ?RET_LOW load(1, XDATA, add(CFA_XSP16, literal(-5)))
          CFI ?RET_HIGH load(1, XDATA, add(CFA_XSP16, literal(-4)))
          CFI ?BRET_EXT load(1, XDATA, add(CFA_XSP16, literal(-3)))
          CFI DPL0 load(1, XDATA, add(CFA_XSP16, literal(-2)))
          CFI DPH0 load(1, XDATA, add(CFA_XSP16, literal(-1)))
          CFI CFA_SP SP+-2
          CFI CFA_XSP16 add(XSP16, 40)
          CFI Block cfiCond26 Using cfiCommon0
          CFI (cfiCond26) Function HalLcdWriteStringValue
          CFI (cfiCond26) Conditional ??CrossCallReturnLabel_11
          CFI (cfiCond26) R6 load(1, XDATA, add(CFA_XSP16, literal(-13)))
          CFI (cfiCond26) VB load(1, XDATA, add(CFA_XSP16, literal(-12)))
          CFI (cfiCond26) V0 load(1, XDATA, add(CFA_XSP16, literal(-11)))
          CFI (cfiCond26) V1 load(1, XDATA, add(CFA_XSP16, literal(-10)))
          CFI (cfiCond26) V2 load(1, XDATA, add(CFA_XSP16, literal(-9)))
          CFI (cfiCond26) V3 load(1, XDATA, add(CFA_XSP16, literal(-8)))
          CFI (cfiCond26) V4 load(1, XDATA, add(CFA_XSP16, literal(-7)))
          CFI (cfiCond26) R7 load(1, XDATA, add(CFA_XSP16, literal(-6)))
          CFI (cfiCond26) ?RET_LOW load(1, XDATA, add(CFA_XSP16, literal(-5)))
          CFI (cfiCond26) ?RET_HIGH load(1, XDATA, add(CFA_XSP16, literal(-4)))
          CFI (cfiCond26) ?BRET_EXT load(1, XDATA, add(CFA_XSP16, literal(-3)))
          CFI (cfiCond26) DPL0 load(1, XDATA, add(CFA_XSP16, literal(-2)))
          CFI (cfiCond26) DPH0 load(1, XDATA, add(CFA_XSP16, literal(-1)))
          CFI (cfiCond26) CFA_SP SP+-2
          CFI (cfiCond26) CFA_XSP16 add(XSP16, 40)
          CFI Block cfiCond27 Using cfiCommon0
          CFI (cfiCond27) Function HalLcdWriteStringValueValue
          CFI (cfiCond27) Conditional ??CrossCallReturnLabel_12
          CFI (cfiCond27) R6 load(1, XDATA, add(CFA_XSP16, literal(-13)))
          CFI (cfiCond27) VB load(1, XDATA, add(CFA_XSP16, literal(-12)))
          CFI (cfiCond27) V0 load(1, XDATA, add(CFA_XSP16, literal(-11)))
          CFI (cfiCond27) V1 load(1, XDATA, add(CFA_XSP16, literal(-10)))
          CFI (cfiCond27) V2 load(1, XDATA, add(CFA_XSP16, literal(-9)))
          CFI (cfiCond27) V3 load(1, XDATA, add(CFA_XSP16, literal(-8)))
          CFI (cfiCond27) V4 load(1, XDATA, add(CFA_XSP16, literal(-7)))
          CFI (cfiCond27) R7 load(1, XDATA, add(CFA_XSP16, literal(-6)))
          CFI (cfiCond27) ?RET_LOW load(1, XDATA, add(CFA_XSP16, literal(-5)))
          CFI (cfiCond27) ?RET_HIGH load(1, XDATA, add(CFA_XSP16, literal(-4)))
          CFI (cfiCond27) ?BRET_EXT load(1, XDATA, add(CFA_XSP16, literal(-3)))
          CFI (cfiCond27) DPL0 load(1, XDATA, add(CFA_XSP16, literal(-2)))
          CFI (cfiCond27) DPH0 load(1, XDATA, add(CFA_XSP16, literal(-1)))
          CFI (cfiCond27) CFA_SP SP+-2
          CFI (cfiCond27) CFA_XSP16 add(XSP16, 40)
          CFI Block cfiPicker28 Using cfiCommon1
          CFI (cfiPicker28) NoFunction
          CFI (cfiPicker28) Picker
        CLR       A
          CFI EndBlock cfiCond25
          CFI EndBlock cfiCond26
          CFI EndBlock cfiCond27
          CFI EndBlock cfiPicker28
        REQUIRE ??Subroutine17_0
        ; // Fall through to label ??Subroutine17_0

        RSEG BANKED_CODE:HUGECODE:NOROOT(0)
??Subroutine17_0:
          CFI Block cfiCond29 Using cfiCommon0
          CFI Function HalLcdDisplayPercentBar
          CFI Conditional ??CrossCallReturnLabel_14
          CFI R6 load(1, XDATA, add(CFA_XSP16, literal(-12)))
          CFI VB load(1, XDATA, add(CFA_XSP16, literal(-11)))
          CFI V0 load(1, XDATA, add(CFA_XSP16, literal(-10)))
          CFI V1 load(1, XDATA, add(CFA_XSP16, literal(-9)))
          CFI V2 load(1, XDATA, add(CFA_XSP16, literal(-8)))
          CFI V3 load(1, XDATA, add(CFA_XSP16, literal(-7)))
          CFI R7 load(1, XDATA, add(CFA_XSP16, literal(-6)))
          CFI ?RET_LOW load(1, XDATA, add(CFA_XSP16, literal(-5)))
          CFI ?RET_HIGH load(1, XDATA, add(CFA_XSP16, literal(-4)))
          CFI ?BRET_EXT load(1, XDATA, add(CFA_XSP16, literal(-3)))
          CFI DPL0 load(1, XDATA, add(CFA_XSP16, literal(-2)))
          CFI DPH0 load(1, XDATA, add(CFA_XSP16, literal(-1)))
          CFI CFA_SP SP+-2
          CFI CFA_XSP16 add(XSP16, 31)
          CFI Block cfiCond30 Using cfiCommon0
          CFI (cfiCond30) Function HalLcdWriteStringValueValue
          CFI (cfiCond30) Conditional ??CrossCallReturnLabel_13
          CFI (cfiCond30) R6 load(1, XDATA, add(CFA_XSP16, literal(-13)))
          CFI (cfiCond30) VB load(1, XDATA, add(CFA_XSP16, literal(-12)))
          CFI (cfiCond30) V0 load(1, XDATA, add(CFA_XSP16, literal(-11)))
          CFI (cfiCond30) V1 load(1, XDATA, add(CFA_XSP16, literal(-10)))
          CFI (cfiCond30) V2 load(1, XDATA, add(CFA_XSP16, literal(-9)))
          CFI (cfiCond30) V3 load(1, XDATA, add(CFA_XSP16, literal(-8)))
          CFI (cfiCond30) V4 load(1, XDATA, add(CFA_XSP16, literal(-7)))
          CFI (cfiCond30) R7 load(1, XDATA, add(CFA_XSP16, literal(-6)))
          CFI (cfiCond30) ?RET_LOW load(1, XDATA, add(CFA_XSP16, literal(-5)))
          CFI (cfiCond30) ?RET_HIGH load(1, XDATA, add(CFA_XSP16, literal(-4)))
          CFI (cfiCond30) ?BRET_EXT load(1, XDATA, add(CFA_XSP16, literal(-3)))
          CFI (cfiCond30) DPL0 load(1, XDATA, add(CFA_XSP16, literal(-2)))
          CFI (cfiCond30) DPH0 load(1, XDATA, add(CFA_XSP16, literal(-1)))
          CFI (cfiCond30) CFA_SP SP+-2
          CFI (cfiCond30) CFA_XSP16 add(XSP16, 40)
          CFI Block cfiCond31 Using cfiCommon0
          CFI (cfiCond31) Function HalLcdWriteStringValue
          CFI (cfiCond31) Conditional ??CrossCallReturnLabel_11
          CFI (cfiCond31) R6 load(1, XDATA, add(CFA_XSP16, literal(-13)))
          CFI (cfiCond31) VB load(1, XDATA, add(CFA_XSP16, literal(-12)))
          CFI (cfiCond31) V0 load(1, XDATA, add(CFA_XSP16, literal(-11)))
          CFI (cfiCond31) V1 load(1, XDATA, add(CFA_XSP16, literal(-10)))
          CFI (cfiCond31) V2 load(1, XDATA, add(CFA_XSP16, literal(-9)))
          CFI (cfiCond31) V3 load(1, XDATA, add(CFA_XSP16, literal(-8)))
          CFI (cfiCond31) V4 load(1, XDATA, add(CFA_XSP16, literal(-7)))
          CFI (cfiCond31) R7 load(1, XDATA, add(CFA_XSP16, literal(-6)))
          CFI (cfiCond31) ?RET_LOW load(1, XDATA, add(CFA_XSP16, literal(-5)))
          CFI (cfiCond31) ?RET_HIGH load(1, XDATA, add(CFA_XSP16, literal(-4)))
          CFI (cfiCond31) ?BRET_EXT load(1, XDATA, add(CFA_XSP16, literal(-3)))
          CFI (cfiCond31) DPL0 load(1, XDATA, add(CFA_XSP16, literal(-2)))
          CFI (cfiCond31) DPH0 load(1, XDATA, add(CFA_XSP16, literal(-1)))
          CFI (cfiCond31) CFA_SP SP+-2
          CFI (cfiCond31) CFA_XSP16 add(XSP16, 40)
          CFI Block cfiCond32 Using cfiCommon0
          CFI (cfiCond32) Function HalLcdWriteStringValueValue
          CFI (cfiCond32) Conditional ??CrossCallReturnLabel_12
          CFI (cfiCond32) R6 load(1, XDATA, add(CFA_XSP16, literal(-13)))
          CFI (cfiCond32) VB load(1, XDATA, add(CFA_XSP16, literal(-12)))
          CFI (cfiCond32) V0 load(1, XDATA, add(CFA_XSP16, literal(-11)))
          CFI (cfiCond32) V1 load(1, XDATA, add(CFA_XSP16, literal(-10)))
          CFI (cfiCond32) V2 load(1, XDATA, add(CFA_XSP16, literal(-9)))
          CFI (cfiCond32) V3 load(1, XDATA, add(CFA_XSP16, literal(-8)))
          CFI (cfiCond32) V4 load(1, XDATA, add(CFA_XSP16, literal(-7)))
          CFI (cfiCond32) R7 load(1, XDATA, add(CFA_XSP16, literal(-6)))
          CFI (cfiCond32) ?RET_LOW load(1, XDATA, add(CFA_XSP16, literal(-5)))
          CFI (cfiCond32) ?RET_HIGH load(1, XDATA, add(CFA_XSP16, literal(-4)))
          CFI (cfiCond32) ?BRET_EXT load(1, XDATA, add(CFA_XSP16, literal(-3)))
          CFI (cfiCond32) DPL0 load(1, XDATA, add(CFA_XSP16, literal(-2)))
          CFI (cfiCond32) DPH0 load(1, XDATA, add(CFA_XSP16, literal(-1)))
          CFI (cfiCond32) CFA_SP SP+-2
          CFI (cfiCond32) CFA_XSP16 add(XSP16, 40)
          CFI Block cfiPicker33 Using cfiCommon1
          CFI (cfiPicker33) NoFunction
          CFI (cfiPicker33) Picker
        MOV       R4,A
        MOV       R5,A
          CFI EndBlock cfiCond29
          CFI EndBlock cfiCond30
          CFI EndBlock cfiCond31
          CFI EndBlock cfiCond32
          CFI EndBlock cfiPicker33
        REQUIRE ??Subroutine18_0
        ; // Fall through to label ??Subroutine18_0

        RSEG BANKED_CODE:HUGECODE:NOROOT(0)
??Subroutine18_0:
          CFI Block cfiCond34 Using cfiCommon0
          CFI Function HalLcdWriteValue
          CFI Conditional ??CrossCallReturnLabel_15
          CFI R6 load(1, XDATA, add(CFA_XSP16, literal(-14)))
          CFI VB load(1, XDATA, add(CFA_XSP16, literal(-13)))
          CFI V0 load(1, XDATA, add(CFA_XSP16, literal(-12)))
          CFI V1 load(1, XDATA, add(CFA_XSP16, literal(-11)))
          CFI V2 load(1, XDATA, add(CFA_XSP16, literal(-10)))
          CFI V3 load(1, XDATA, add(CFA_XSP16, literal(-9)))
          CFI V4 load(1, XDATA, add(CFA_XSP16, literal(-8)))
          CFI V5 load(1, XDATA, add(CFA_XSP16, literal(-7)))
          CFI R7 load(1, XDATA, add(CFA_XSP16, literal(-6)))
          CFI ?RET_LOW load(1, XDATA, add(CFA_XSP16, literal(-5)))
          CFI ?RET_HIGH load(1, XDATA, add(CFA_XSP16, literal(-4)))
          CFI ?BRET_EXT load(1, XDATA, add(CFA_XSP16, literal(-3)))
          CFI DPL0 load(1, XDATA, add(CFA_XSP16, literal(-2)))
          CFI DPH0 load(1, XDATA, add(CFA_XSP16, literal(-1)))
          CFI CFA_SP SP+-2
          CFI CFA_XSP16 add(XSP16, 41)
          CFI Block cfiCond35 Using cfiCommon0
          CFI (cfiCond35) Function HalLcdDisplayPercentBar
          CFI (cfiCond35) Conditional ??CrossCallReturnLabel_14
          CFI (cfiCond35) R6 load(1, XDATA, add(CFA_XSP16, literal(-12)))
          CFI (cfiCond35) VB load(1, XDATA, add(CFA_XSP16, literal(-11)))
          CFI (cfiCond35) V0 load(1, XDATA, add(CFA_XSP16, literal(-10)))
          CFI (cfiCond35) V1 load(1, XDATA, add(CFA_XSP16, literal(-9)))
          CFI (cfiCond35) V2 load(1, XDATA, add(CFA_XSP16, literal(-8)))
          CFI (cfiCond35) V3 load(1, XDATA, add(CFA_XSP16, literal(-7)))
          CFI (cfiCond35) R7 load(1, XDATA, add(CFA_XSP16, literal(-6)))
          CFI (cfiCond35) ?RET_LOW load(1, XDATA, add(CFA_XSP16, literal(-5)))
          CFI (cfiCond35) ?RET_HIGH load(1, XDATA, add(CFA_XSP16, literal(-4)))
          CFI (cfiCond35) ?BRET_EXT load(1, XDATA, add(CFA_XSP16, literal(-3)))
          CFI (cfiCond35) DPL0 load(1, XDATA, add(CFA_XSP16, literal(-2)))
          CFI (cfiCond35) DPH0 load(1, XDATA, add(CFA_XSP16, literal(-1)))
          CFI (cfiCond35) CFA_SP SP+-2
          CFI (cfiCond35) CFA_XSP16 add(XSP16, 31)
          CFI Block cfiCond36 Using cfiCommon0
          CFI (cfiCond36) Function HalLcdWriteStringValueValue
          CFI (cfiCond36) Conditional ??CrossCallReturnLabel_13
          CFI (cfiCond36) R6 load(1, XDATA, add(CFA_XSP16, literal(-13)))
          CFI (cfiCond36) VB load(1, XDATA, add(CFA_XSP16, literal(-12)))
          CFI (cfiCond36) V0 load(1, XDATA, add(CFA_XSP16, literal(-11)))
          CFI (cfiCond36) V1 load(1, XDATA, add(CFA_XSP16, literal(-10)))
          CFI (cfiCond36) V2 load(1, XDATA, add(CFA_XSP16, literal(-9)))
          CFI (cfiCond36) V3 load(1, XDATA, add(CFA_XSP16, literal(-8)))
          CFI (cfiCond36) V4 load(1, XDATA, add(CFA_XSP16, literal(-7)))
          CFI (cfiCond36) R7 load(1, XDATA, add(CFA_XSP16, literal(-6)))
          CFI (cfiCond36) ?RET_LOW load(1, XDATA, add(CFA_XSP16, literal(-5)))
          CFI (cfiCond36) ?RET_HIGH load(1, XDATA, add(CFA_XSP16, literal(-4)))
          CFI (cfiCond36) ?BRET_EXT load(1, XDATA, add(CFA_XSP16, literal(-3)))
          CFI (cfiCond36) DPL0 load(1, XDATA, add(CFA_XSP16, literal(-2)))
          CFI (cfiCond36) DPH0 load(1, XDATA, add(CFA_XSP16, literal(-1)))
          CFI (cfiCond36) CFA_SP SP+-2
          CFI (cfiCond36) CFA_XSP16 add(XSP16, 40)
          CFI Block cfiCond37 Using cfiCommon0
          CFI (cfiCond37) Function HalLcdWriteStringValue
          CFI (cfiCond37) Conditional ??CrossCallReturnLabel_11
          CFI (cfiCond37) R6 load(1, XDATA, add(CFA_XSP16, literal(-13)))
          CFI (cfiCond37) VB load(1, XDATA, add(CFA_XSP16, literal(-12)))
          CFI (cfiCond37) V0 load(1, XDATA, add(CFA_XSP16, literal(-11)))
          CFI (cfiCond37) V1 load(1, XDATA, add(CFA_XSP16, literal(-10)))
          CFI (cfiCond37) V2 load(1, XDATA, add(CFA_XSP16, literal(-9)))
          CFI (cfiCond37) V3 load(1, XDATA, add(CFA_XSP16, literal(-8)))
          CFI (cfiCond37) V4 load(1, XDATA, add(CFA_XSP16, literal(-7)))
          CFI (cfiCond37) R7 load(1, XDATA, add(CFA_XSP16, literal(-6)))
          CFI (cfiCond37) ?RET_LOW load(1, XDATA, add(CFA_XSP16, literal(-5)))
          CFI (cfiCond37) ?RET_HIGH load(1, XDATA, add(CFA_XSP16, literal(-4)))
          CFI (cfiCond37) ?BRET_EXT load(1, XDATA, add(CFA_XSP16, literal(-3)))
          CFI (cfiCond37) DPL0 load(1, XDATA, add(CFA_XSP16, literal(-2)))
          CFI (cfiCond37) DPH0 load(1, XDATA, add(CFA_XSP16, literal(-1)))
          CFI (cfiCond37) CFA_SP SP+-2
          CFI (cfiCond37) CFA_XSP16 add(XSP16, 40)
          CFI Block cfiCond38 Using cfiCommon0
          CFI (cfiCond38) Function HalLcdWriteStringValueValue
          CFI (cfiCond38) Conditional ??CrossCallReturnLabel_12
          CFI (cfiCond38) R6 load(1, XDATA, add(CFA_XSP16, literal(-13)))
          CFI (cfiCond38) VB load(1, XDATA, add(CFA_XSP16, literal(-12)))
          CFI (cfiCond38) V0 load(1, XDATA, add(CFA_XSP16, literal(-11)))
          CFI (cfiCond38) V1 load(1, XDATA, add(CFA_XSP16, literal(-10)))
          CFI (cfiCond38) V2 load(1, XDATA, add(CFA_XSP16, literal(-9)))
          CFI (cfiCond38) V3 load(1, XDATA, add(CFA_XSP16, literal(-8)))
          CFI (cfiCond38) V4 load(1, XDATA, add(CFA_XSP16, literal(-7)))
          CFI (cfiCond38) R7 load(1, XDATA, add(CFA_XSP16, literal(-6)))
          CFI (cfiCond38) ?RET_LOW load(1, XDATA, add(CFA_XSP16, literal(-5)))
          CFI (cfiCond38) ?RET_HIGH load(1, XDATA, add(CFA_XSP16, literal(-4)))
          CFI (cfiCond38) ?BRET_EXT load(1, XDATA, add(CFA_XSP16, literal(-3)))
          CFI (cfiCond38) DPL0 load(1, XDATA, add(CFA_XSP16, literal(-2)))
          CFI (cfiCond38) DPH0 load(1, XDATA, add(CFA_XSP16, literal(-1)))
          CFI (cfiCond38) CFA_SP SP+-2
          CFI (cfiCond38) CFA_XSP16 add(XSP16, 40)
          CFI Block cfiPicker39 Using cfiCommon1
          CFI (cfiPicker39) NoFunction
          CFI (cfiPicker39) Picker
        LCALL     `??_ltoa::?relay`; Banked call to: _ltoa
        MOV       A,#0x2
        RET
          CFI EndBlock cfiCond34
          CFI EndBlock cfiCond35
          CFI EndBlock cfiCond36
          CFI EndBlock cfiCond37
          CFI EndBlock cfiCond38
          CFI EndBlock cfiPicker39

        RSEG BANKED_CODE:HUGECODE:NOROOT(0)
?Subroutine8:
          CFI Block cfiCond40 Using cfiCommon0
          CFI Function HalLcdWriteStringValue
          CFI Conditional ??CrossCallReturnLabel_16
          CFI R6 load(1, XDATA, add(CFA_XSP16, literal(-13)))
          CFI VB load(1, XDATA, add(CFA_XSP16, literal(-12)))
          CFI V0 load(1, XDATA, add(CFA_XSP16, literal(-11)))
          CFI V1 load(1, XDATA, add(CFA_XSP16, literal(-10)))
          CFI V2 load(1, XDATA, add(CFA_XSP16, literal(-9)))
          CFI V3 load(1, XDATA, add(CFA_XSP16, literal(-8)))
          CFI V4 load(1, XDATA, add(CFA_XSP16, literal(-7)))
          CFI R7 load(1, XDATA, add(CFA_XSP16, literal(-6)))
          CFI ?RET_LOW load(1, XDATA, add(CFA_XSP16, literal(-5)))
          CFI ?RET_HIGH load(1, XDATA, add(CFA_XSP16, literal(-4)))
          CFI ?BRET_EXT load(1, XDATA, add(CFA_XSP16, literal(-3)))
          CFI DPL0 load(1, XDATA, add(CFA_XSP16, literal(-2)))
          CFI DPH0 load(1, XDATA, add(CFA_XSP16, literal(-1)))
          CFI CFA_SP SP+-2
          CFI CFA_XSP16 add(XSP16, 38)
          CFI Block cfiCond41 Using cfiCommon0
          CFI (cfiCond41) Function HalLcdWriteStringValueValue
          CFI (cfiCond41) Conditional ??CrossCallReturnLabel_17
          CFI (cfiCond41) R6 load(1, XDATA, add(CFA_XSP16, literal(-13)))
          CFI (cfiCond41) VB load(1, XDATA, add(CFA_XSP16, literal(-12)))
          CFI (cfiCond41) V0 load(1, XDATA, add(CFA_XSP16, literal(-11)))
          CFI (cfiCond41) V1 load(1, XDATA, add(CFA_XSP16, literal(-10)))
          CFI (cfiCond41) V2 load(1, XDATA, add(CFA_XSP16, literal(-9)))
          CFI (cfiCond41) V3 load(1, XDATA, add(CFA_XSP16, literal(-8)))
          CFI (cfiCond41) V4 load(1, XDATA, add(CFA_XSP16, literal(-7)))
          CFI (cfiCond41) R7 load(1, XDATA, add(CFA_XSP16, literal(-6)))
          CFI (cfiCond41) ?RET_LOW load(1, XDATA, add(CFA_XSP16, literal(-5)))
          CFI (cfiCond41) ?RET_HIGH load(1, XDATA, add(CFA_XSP16, literal(-4)))
          CFI (cfiCond41) ?BRET_EXT load(1, XDATA, add(CFA_XSP16, literal(-3)))
          CFI (cfiCond41) DPL0 load(1, XDATA, add(CFA_XSP16, literal(-2)))
          CFI (cfiCond41) DPH0 load(1, XDATA, add(CFA_XSP16, literal(-1)))
          CFI (cfiCond41) CFA_SP SP+-2
          CFI (cfiCond41) CFA_XSP16 add(XSP16, 38)
          CFI Block cfiPicker42 Using cfiCommon1
          CFI (cfiPicker42) NoFunction
          CFI (cfiPicker42) Picker
        MOV       ?V0,R2
        MOV       ?V1,R3
        MOV       A,R4
        MOV       R6,A
        MOV       A,R5
        MOV       R7,A
        MOV       ?V4,R1
          CFI EndBlock cfiCond40
          CFI EndBlock cfiCond41
          CFI EndBlock cfiPicker42
        ; Setup parameters for call to function osal_strlen
        ; Setup parameters for call to function osal_strlen
        REQUIRE ??Subroutine19_0
        ; // Fall through to label ??Subroutine19_0

        RSEG BANKED_CODE:HUGECODE:NOROOT(0)
??Subroutine19_0:
          CFI Block cfiCond43 Using cfiCommon0
          CFI Function HalLcdWriteString
          CFI Conditional ??CrossCallReturnLabel_18
          CFI R6 load(1, XDATA, add(CFA_XSP16, literal(-16)))
          CFI VB load(1, XDATA, add(CFA_XSP16, literal(-15)))
          CFI V0 load(1, XDATA, add(CFA_XSP16, literal(-14)))
          CFI V1 load(1, XDATA, add(CFA_XSP16, literal(-13)))
          CFI V2 load(1, XDATA, add(CFA_XSP16, literal(-12)))
          CFI V3 load(1, XDATA, add(CFA_XSP16, literal(-11)))
          CFI V4 load(1, XDATA, add(CFA_XSP16, literal(-10)))
          CFI V5 load(1, XDATA, add(CFA_XSP16, literal(-9)))
          CFI V6 load(1, XDATA, add(CFA_XSP16, literal(-8)))
          CFI V7 load(1, XDATA, add(CFA_XSP16, literal(-7)))
          CFI R7 load(1, XDATA, add(CFA_XSP16, literal(-6)))
          CFI ?RET_LOW load(1, XDATA, add(CFA_XSP16, literal(-5)))
          CFI ?RET_HIGH load(1, XDATA, add(CFA_XSP16, literal(-4)))
          CFI ?BRET_EXT load(1, XDATA, add(CFA_XSP16, literal(-3)))
          CFI DPL0 load(1, XDATA, add(CFA_XSP16, literal(-2)))
          CFI DPH0 load(1, XDATA, add(CFA_XSP16, literal(-1)))
          CFI CFA_SP SP+-2
          CFI CFA_XSP16 add(XSP16, 17)
          CFI Block cfiCond44 Using cfiCommon0
          CFI (cfiCond44) Function HalLcdWriteStringValueValue
          CFI (cfiCond44) Conditional ??CrossCallReturnLabel_19
          CFI (cfiCond44) R6 load(1, XDATA, add(CFA_XSP16, literal(-13)))
          CFI (cfiCond44) VB load(1, XDATA, add(CFA_XSP16, literal(-12)))
          CFI (cfiCond44) V0 load(1, XDATA, add(CFA_XSP16, literal(-11)))
          CFI (cfiCond44) V1 load(1, XDATA, add(CFA_XSP16, literal(-10)))
          CFI (cfiCond44) V2 load(1, XDATA, add(CFA_XSP16, literal(-9)))
          CFI (cfiCond44) V3 load(1, XDATA, add(CFA_XSP16, literal(-8)))
          CFI (cfiCond44) V4 load(1, XDATA, add(CFA_XSP16, literal(-7)))
          CFI (cfiCond44) R7 load(1, XDATA, add(CFA_XSP16, literal(-6)))
          CFI (cfiCond44) ?RET_LOW load(1, XDATA, add(CFA_XSP16, literal(-5)))
          CFI (cfiCond44) ?RET_HIGH load(1, XDATA, add(CFA_XSP16, literal(-4)))
          CFI (cfiCond44) ?BRET_EXT load(1, XDATA, add(CFA_XSP16, literal(-3)))
          CFI (cfiCond44) DPL0 load(1, XDATA, add(CFA_XSP16, literal(-2)))
          CFI (cfiCond44) DPH0 load(1, XDATA, add(CFA_XSP16, literal(-1)))
          CFI (cfiCond44) CFA_SP SP+-2
          CFI (cfiCond44) CFA_XSP16 add(XSP16, 38)
          CFI Block cfiCond45 Using cfiCommon0
          CFI (cfiCond45) Function HalLcdWriteStringValue
          CFI (cfiCond45) Conditional ??CrossCallReturnLabel_16
          CFI (cfiCond45) R6 load(1, XDATA, add(CFA_XSP16, literal(-13)))
          CFI (cfiCond45) VB load(1, XDATA, add(CFA_XSP16, literal(-12)))
          CFI (cfiCond45) V0 load(1, XDATA, add(CFA_XSP16, literal(-11)))
          CFI (cfiCond45) V1 load(1, XDATA, add(CFA_XSP16, literal(-10)))
          CFI (cfiCond45) V2 load(1, XDATA, add(CFA_XSP16, literal(-9)))
          CFI (cfiCond45) V3 load(1, XDATA, add(CFA_XSP16, literal(-8)))
          CFI (cfiCond45) V4 load(1, XDATA, add(CFA_XSP16, literal(-7)))
          CFI (cfiCond45) R7 load(1, XDATA, add(CFA_XSP16, literal(-6)))
          CFI (cfiCond45) ?RET_LOW load(1, XDATA, add(CFA_XSP16, literal(-5)))
          CFI (cfiCond45) ?RET_HIGH load(1, XDATA, add(CFA_XSP16, literal(-4)))
          CFI (cfiCond45) ?BRET_EXT load(1, XDATA, add(CFA_XSP16, literal(-3)))
          CFI (cfiCond45) DPL0 load(1, XDATA, add(CFA_XSP16, literal(-2)))
          CFI (cfiCond45) DPH0 load(1, XDATA, add(CFA_XSP16, literal(-1)))
          CFI (cfiCond45) CFA_SP SP+-2
          CFI (cfiCond45) CFA_XSP16 add(XSP16, 38)
          CFI Block cfiCond46 Using cfiCommon0
          CFI (cfiCond46) Function HalLcdWriteStringValueValue
          CFI (cfiCond46) Conditional ??CrossCallReturnLabel_17
          CFI (cfiCond46) R6 load(1, XDATA, add(CFA_XSP16, literal(-13)))
          CFI (cfiCond46) VB load(1, XDATA, add(CFA_XSP16, literal(-12)))
          CFI (cfiCond46) V0 load(1, XDATA, add(CFA_XSP16, literal(-11)))
          CFI (cfiCond46) V1 load(1, XDATA, add(CFA_XSP16, literal(-10)))
          CFI (cfiCond46) V2 load(1, XDATA, add(CFA_XSP16, literal(-9)))
          CFI (cfiCond46) V3 load(1, XDATA, add(CFA_XSP16, literal(-8)))
          CFI (cfiCond46) V4 load(1, XDATA, add(CFA_XSP16, literal(-7)))
          CFI (cfiCond46) R7 load(1, XDATA, add(CFA_XSP16, literal(-6)))
          CFI (cfiCond46) ?RET_LOW load(1, XDATA, add(CFA_XSP16, literal(-5)))
          CFI (cfiCond46) ?RET_HIGH load(1, XDATA, add(CFA_XSP16, literal(-4)))
          CFI (cfiCond46) ?BRET_EXT load(1, XDATA, add(CFA_XSP16, literal(-3)))
          CFI (cfiCond46) DPL0 load(1, XDATA, add(CFA_XSP16, literal(-2)))
          CFI (cfiCond46) DPH0 load(1, XDATA, add(CFA_XSP16, literal(-1)))
          CFI (cfiCond46) CFA_SP SP+-2
          CFI (cfiCond46) CFA_XSP16 add(XSP16, 38)
          CFI Block cfiPicker47 Using cfiCommon1
          CFI (cfiPicker47) NoFunction
          CFI (cfiPicker47) Picker
        LCALL     `??osal_strlen::?relay`; Banked call to: osal_strlen
        MOV       A,R2
        MOV       ?V3,A
        RET
          CFI EndBlock cfiCond43
          CFI EndBlock cfiCond44
          CFI EndBlock cfiCond45
          CFI EndBlock cfiCond46
          CFI EndBlock cfiPicker47

        RSEG BANKED_CODE:HUGECODE:NOROOT(0)
?Subroutine7:
          CFI Block cfiCond48 Using cfiCommon0
          CFI Function HalLcdWriteString
          CFI Conditional ??CrossCallReturnLabel_20
          CFI R6 load(1, XDATA, add(CFA_XSP16, literal(-16)))
          CFI VB load(1, XDATA, add(CFA_XSP16, literal(-15)))
          CFI V0 load(1, XDATA, add(CFA_XSP16, literal(-14)))
          CFI V1 load(1, XDATA, add(CFA_XSP16, literal(-13)))
          CFI V2 load(1, XDATA, add(CFA_XSP16, literal(-12)))
          CFI V3 load(1, XDATA, add(CFA_XSP16, literal(-11)))
          CFI V4 load(1, XDATA, add(CFA_XSP16, literal(-10)))
          CFI V5 load(1, XDATA, add(CFA_XSP16, literal(-9)))
          CFI V6 load(1, XDATA, add(CFA_XSP16, literal(-8)))
          CFI V7 load(1, XDATA, add(CFA_XSP16, literal(-7)))
          CFI R7 load(1, XDATA, add(CFA_XSP16, literal(-6)))
          CFI ?RET_LOW load(1, XDATA, add(CFA_XSP16, literal(-5)))
          CFI ?RET_HIGH load(1, XDATA, add(CFA_XSP16, literal(-4)))
          CFI ?BRET_EXT load(1, XDATA, add(CFA_XSP16, literal(-3)))
          CFI DPL0 load(1, XDATA, add(CFA_XSP16, literal(-2)))
          CFI DPH0 load(1, XDATA, add(CFA_XSP16, literal(-1)))
          CFI CFA_SP SP+-2
          CFI CFA_XSP16 add(XSP16, 20)
          CFI Block cfiCond49 Using cfiCommon0
          CFI (cfiCond49) Function HalLcdWriteString
          CFI (cfiCond49) Conditional ??CrossCallReturnLabel_21
          CFI (cfiCond49) R6 load(1, XDATA, add(CFA_XSP16, literal(-16)))
          CFI (cfiCond49) VB load(1, XDATA, add(CFA_XSP16, literal(-15)))
          CFI (cfiCond49) V0 load(1, XDATA, add(CFA_XSP16, literal(-14)))
          CFI (cfiCond49) V1 load(1, XDATA, add(CFA_XSP16, literal(-13)))
          CFI (cfiCond49) V2 load(1, XDATA, add(CFA_XSP16, literal(-12)))
          CFI (cfiCond49) V3 load(1, XDATA, add(CFA_XSP16, literal(-11)))
          CFI (cfiCond49) V4 load(1, XDATA, add(CFA_XSP16, literal(-10)))
          CFI (cfiCond49) V5 load(1, XDATA, add(CFA_XSP16, literal(-9)))
          CFI (cfiCond49) V6 load(1, XDATA, add(CFA_XSP16, literal(-8)))
          CFI (cfiCond49) V7 load(1, XDATA, add(CFA_XSP16, literal(-7)))
          CFI (cfiCond49) R7 load(1, XDATA, add(CFA_XSP16, literal(-6)))
          CFI (cfiCond49) ?RET_LOW load(1, XDATA, add(CFA_XSP16, literal(-5)))
          CFI (cfiCond49) ?RET_HIGH load(1, XDATA, add(CFA_XSP16, literal(-4)))
          CFI (cfiCond49) ?BRET_EXT load(1, XDATA, add(CFA_XSP16, literal(-3)))
          CFI (cfiCond49) DPL0 load(1, XDATA, add(CFA_XSP16, literal(-2)))
          CFI (cfiCond49) DPH0 load(1, XDATA, add(CFA_XSP16, literal(-1)))
          CFI (cfiCond49) CFA_SP SP+-2
          CFI (cfiCond49) CFA_XSP16 add(XSP16, 20)
          CFI Block cfiPicker50 Using cfiCommon1
          CFI (cfiPicker50) NoFunction
          CFI (cfiPicker50) Picker
        MOV       R3,A
          CFI EndBlock cfiCond48
          CFI EndBlock cfiCond49
          CFI EndBlock cfiPicker50
        REQUIRE ??Subroutine20_0
        ; // Fall through to label ??Subroutine20_0

        RSEG BANKED_CODE:HUGECODE:NOROOT(0)
??Subroutine20_0:
          CFI Block cfiCond51 Using cfiCommon0
          CFI Function HalLcdWriteString
          CFI Conditional ??CrossCallReturnLabel_22
          CFI R6 load(1, XDATA, add(CFA_XSP16, literal(-16)))
          CFI VB load(1, XDATA, add(CFA_XSP16, literal(-15)))
          CFI V0 load(1, XDATA, add(CFA_XSP16, literal(-14)))
          CFI V1 load(1, XDATA, add(CFA_XSP16, literal(-13)))
          CFI V2 load(1, XDATA, add(CFA_XSP16, literal(-12)))
          CFI V3 load(1, XDATA, add(CFA_XSP16, literal(-11)))
          CFI V4 load(1, XDATA, add(CFA_XSP16, literal(-10)))
          CFI V5 load(1, XDATA, add(CFA_XSP16, literal(-9)))
          CFI V6 load(1, XDATA, add(CFA_XSP16, literal(-8)))
          CFI V7 load(1, XDATA, add(CFA_XSP16, literal(-7)))
          CFI R7 load(1, XDATA, add(CFA_XSP16, literal(-6)))
          CFI ?RET_LOW load(1, XDATA, add(CFA_XSP16, literal(-5)))
          CFI ?RET_HIGH load(1, XDATA, add(CFA_XSP16, literal(-4)))
          CFI ?BRET_EXT load(1, XDATA, add(CFA_XSP16, literal(-3)))
          CFI DPL0 load(1, XDATA, add(CFA_XSP16, literal(-2)))
          CFI DPH0 load(1, XDATA, add(CFA_XSP16, literal(-1)))
          CFI CFA_SP SP+-2
          CFI CFA_XSP16 add(XSP16, 20)
          CFI Block cfiCond52 Using cfiCommon0
          CFI (cfiCond52) Function HalLcdWriteStringValue
          CFI (cfiCond52) Conditional ??CrossCallReturnLabel_23
          CFI (cfiCond52) R6 load(1, XDATA, add(CFA_XSP16, literal(-13)))
          CFI (cfiCond52) VB load(1, XDATA, add(CFA_XSP16, literal(-12)))
          CFI (cfiCond52) V0 load(1, XDATA, add(CFA_XSP16, literal(-11)))
          CFI (cfiCond52) V1 load(1, XDATA, add(CFA_XSP16, literal(-10)))
          CFI (cfiCond52) V2 load(1, XDATA, add(CFA_XSP16, literal(-9)))
          CFI (cfiCond52) V3 load(1, XDATA, add(CFA_XSP16, literal(-8)))
          CFI (cfiCond52) V4 load(1, XDATA, add(CFA_XSP16, literal(-7)))
          CFI (cfiCond52) R7 load(1, XDATA, add(CFA_XSP16, literal(-6)))
          CFI (cfiCond52) ?RET_LOW load(1, XDATA, add(CFA_XSP16, literal(-5)))
          CFI (cfiCond52) ?RET_HIGH load(1, XDATA, add(CFA_XSP16, literal(-4)))
          CFI (cfiCond52) ?BRET_EXT load(1, XDATA, add(CFA_XSP16, literal(-3)))
          CFI (cfiCond52) DPL0 load(1, XDATA, add(CFA_XSP16, literal(-2)))
          CFI (cfiCond52) DPH0 load(1, XDATA, add(CFA_XSP16, literal(-1)))
          CFI (cfiCond52) CFA_SP SP+-2
          CFI (cfiCond52) CFA_XSP16 add(XSP16, 41)
          CFI Block cfiCond53 Using cfiCommon0
          CFI (cfiCond53) Function HalLcdWriteStringValueValue
          CFI (cfiCond53) Conditional ??CrossCallReturnLabel_24
          CFI (cfiCond53) R6 load(1, XDATA, add(CFA_XSP16, literal(-13)))
          CFI (cfiCond53) VB load(1, XDATA, add(CFA_XSP16, literal(-12)))
          CFI (cfiCond53) V0 load(1, XDATA, add(CFA_XSP16, literal(-11)))
          CFI (cfiCond53) V1 load(1, XDATA, add(CFA_XSP16, literal(-10)))
          CFI (cfiCond53) V2 load(1, XDATA, add(CFA_XSP16, literal(-9)))
          CFI (cfiCond53) V3 load(1, XDATA, add(CFA_XSP16, literal(-8)))
          CFI (cfiCond53) V4 load(1, XDATA, add(CFA_XSP16, literal(-7)))
          CFI (cfiCond53) R7 load(1, XDATA, add(CFA_XSP16, literal(-6)))
          CFI (cfiCond53) ?RET_LOW load(1, XDATA, add(CFA_XSP16, literal(-5)))
          CFI (cfiCond53) ?RET_HIGH load(1, XDATA, add(CFA_XSP16, literal(-4)))
          CFI (cfiCond53) ?BRET_EXT load(1, XDATA, add(CFA_XSP16, literal(-3)))
          CFI (cfiCond53) DPL0 load(1, XDATA, add(CFA_XSP16, literal(-2)))
          CFI (cfiCond53) DPH0 load(1, XDATA, add(CFA_XSP16, literal(-1)))
          CFI (cfiCond53) CFA_SP SP+-2
          CFI (cfiCond53) CFA_XSP16 add(XSP16, 41)
          CFI Block cfiCond54 Using cfiCommon0
          CFI (cfiCond54) Function HalLcdDisplayPercentBar
          CFI (cfiCond54) Conditional ??CrossCallReturnLabel_25
          CFI (cfiCond54) R6 load(1, XDATA, add(CFA_XSP16, literal(-12)))
          CFI (cfiCond54) VB load(1, XDATA, add(CFA_XSP16, literal(-11)))
          CFI (cfiCond54) V0 load(1, XDATA, add(CFA_XSP16, literal(-10)))
          CFI (cfiCond54) V1 load(1, XDATA, add(CFA_XSP16, literal(-9)))
          CFI (cfiCond54) V2 load(1, XDATA, add(CFA_XSP16, literal(-8)))
          CFI (cfiCond54) V3 load(1, XDATA, add(CFA_XSP16, literal(-7)))
          CFI (cfiCond54) R7 load(1, XDATA, add(CFA_XSP16, literal(-6)))
          CFI (cfiCond54) ?RET_LOW load(1, XDATA, add(CFA_XSP16, literal(-5)))
          CFI (cfiCond54) ?RET_HIGH load(1, XDATA, add(CFA_XSP16, literal(-4)))
          CFI (cfiCond54) ?BRET_EXT load(1, XDATA, add(CFA_XSP16, literal(-3)))
          CFI (cfiCond54) DPL0 load(1, XDATA, add(CFA_XSP16, literal(-2)))
          CFI (cfiCond54) DPH0 load(1, XDATA, add(CFA_XSP16, literal(-1)))
          CFI (cfiCond54) CFA_SP SP+-2
          CFI (cfiCond54) CFA_XSP16 add(XSP16, 32)
          CFI Block cfiCond55 Using cfiCommon0
          CFI (cfiCond55) Function HalLcdWriteString
          CFI (cfiCond55) Conditional ??CrossCallReturnLabel_20
          CFI (cfiCond55) R6 load(1, XDATA, add(CFA_XSP16, literal(-16)))
          CFI (cfiCond55) VB load(1, XDATA, add(CFA_XSP16, literal(-15)))
          CFI (cfiCond55) V0 load(1, XDATA, add(CFA_XSP16, literal(-14)))
          CFI (cfiCond55) V1 load(1, XDATA, add(CFA_XSP16, literal(-13)))
          CFI (cfiCond55) V2 load(1, XDATA, add(CFA_XSP16, literal(-12)))
          CFI (cfiCond55) V3 load(1, XDATA, add(CFA_XSP16, literal(-11)))
          CFI (cfiCond55) V4 load(1, XDATA, add(CFA_XSP16, literal(-10)))
          CFI (cfiCond55) V5 load(1, XDATA, add(CFA_XSP16, literal(-9)))
          CFI (cfiCond55) V6 load(1, XDATA, add(CFA_XSP16, literal(-8)))
          CFI (cfiCond55) V7 load(1, XDATA, add(CFA_XSP16, literal(-7)))
          CFI (cfiCond55) R7 load(1, XDATA, add(CFA_XSP16, literal(-6)))
          CFI (cfiCond55) ?RET_LOW load(1, XDATA, add(CFA_XSP16, literal(-5)))
          CFI (cfiCond55) ?RET_HIGH load(1, XDATA, add(CFA_XSP16, literal(-4)))
          CFI (cfiCond55) ?BRET_EXT load(1, XDATA, add(CFA_XSP16, literal(-3)))
          CFI (cfiCond55) DPL0 load(1, XDATA, add(CFA_XSP16, literal(-2)))
          CFI (cfiCond55) DPH0 load(1, XDATA, add(CFA_XSP16, literal(-1)))
          CFI (cfiCond55) CFA_SP SP+-2
          CFI (cfiCond55) CFA_XSP16 add(XSP16, 20)
          CFI Block cfiCond56 Using cfiCommon0
          CFI (cfiCond56) Function HalLcdWriteString
          CFI (cfiCond56) Conditional ??CrossCallReturnLabel_21
          CFI (cfiCond56) R6 load(1, XDATA, add(CFA_XSP16, literal(-16)))
          CFI (cfiCond56) VB load(1, XDATA, add(CFA_XSP16, literal(-15)))
          CFI (cfiCond56) V0 load(1, XDATA, add(CFA_XSP16, literal(-14)))
          CFI (cfiCond56) V1 load(1, XDATA, add(CFA_XSP16, literal(-13)))
          CFI (cfiCond56) V2 load(1, XDATA, add(CFA_XSP16, literal(-12)))
          CFI (cfiCond56) V3 load(1, XDATA, add(CFA_XSP16, literal(-11)))
          CFI (cfiCond56) V4 load(1, XDATA, add(CFA_XSP16, literal(-10)))
          CFI (cfiCond56) V5 load(1, XDATA, add(CFA_XSP16, literal(-9)))
          CFI (cfiCond56) V6 load(1, XDATA, add(CFA_XSP16, literal(-8)))
          CFI (cfiCond56) V7 load(1, XDATA, add(CFA_XSP16, literal(-7)))
          CFI (cfiCond56) R7 load(1, XDATA, add(CFA_XSP16, literal(-6)))
          CFI (cfiCond56) ?RET_LOW load(1, XDATA, add(CFA_XSP16, literal(-5)))
          CFI (cfiCond56) ?RET_HIGH load(1, XDATA, add(CFA_XSP16, literal(-4)))
          CFI (cfiCond56) ?BRET_EXT load(1, XDATA, add(CFA_XSP16, literal(-3)))
          CFI (cfiCond56) DPL0 load(1, XDATA, add(CFA_XSP16, literal(-2)))
          CFI (cfiCond56) DPH0 load(1, XDATA, add(CFA_XSP16, literal(-1)))
          CFI (cfiCond56) CFA_SP SP+-2
          CFI (cfiCond56) CFA_XSP16 add(XSP16, 20)
          CFI Block cfiPicker57 Using cfiCommon1
          CFI (cfiPicker57) NoFunction
          CFI (cfiPicker57) Picker
        LCALL     `??osal_memcpy::?relay`; Banked call to: osal_memcpy
        MOV       A,#0x3
        RET
          CFI EndBlock cfiCond51
          CFI EndBlock cfiCond52
          CFI EndBlock cfiCond53
          CFI EndBlock cfiCond54
          CFI EndBlock cfiCond55
          CFI EndBlock cfiCond56
          CFI EndBlock cfiPicker57
//  511 
//  512 /**************************************************************************************************
//  513  * @fn      HalLcdDisplayPercentBar
//  514  *
//  515  * @brief   Display percentage bar on the LCD
//  516  *
//  517  * @param   title   -
//  518  *          value   -
//  519  *
//  520  * @return  None
//  521  **************************************************************************************************/

        RSEG BANKED_CODE:HUGECODE:NOROOT(0)
//  522 void HalLcdDisplayPercentBar( char *title, uint8 value )
HalLcdDisplayPercentBar:
          CFI Block cfiBlock58 Using cfiCommon0
          CFI Function HalLcdDisplayPercentBar
        CODE
//  523 {
        FUNCALL HalLcdDisplayPercentBar, HalLcdWriteString
        LOCFRAME ISTACK, 0, STACK
        LOCFRAME PSTACK, 0, STACK
        LOCFRAME XSTACK, 29, STACK
        LOCFRAME IOVERLAY, 0, STATIC
        LOCFRAME DOVERLAY, 0, STATIC
        ARGFRAME ISTACK, 0, STACK
        ARGFRAME PSTACK, 0, STACK
        ARGFRAME XSTACK, 29, STACK
        ARGFRAME IOVERLAY, 0, STATIC
        ARGFRAME DOVERLAY, 0, STATIC
        FUNCALL HalLcdDisplayPercentBar, osal_memcpy
        LOCFRAME ISTACK, 0, STACK
        LOCFRAME PSTACK, 0, STACK
        LOCFRAME XSTACK, 32, STACK
        LOCFRAME IOVERLAY, 0, STATIC
        LOCFRAME DOVERLAY, 0, STATIC
        ARGFRAME ISTACK, 0, STACK
        ARGFRAME PSTACK, 0, STACK
        ARGFRAME XSTACK, 32, STACK
        ARGFRAME IOVERLAY, 0, STATIC
        ARGFRAME DOVERLAY, 0, STATIC
        FUNCALL HalLcdDisplayPercentBar, _ltoa
        LOCFRAME ISTACK, 0, STACK
        LOCFRAME PSTACK, 0, STACK
        LOCFRAME XSTACK, 31, STACK
        LOCFRAME IOVERLAY, 0, STATIC
        LOCFRAME DOVERLAY, 0, STATIC
        ARGFRAME ISTACK, 0, STACK
        ARGFRAME PSTACK, 0, STACK
        ARGFRAME XSTACK, 31, STACK
        ARGFRAME IOVERLAY, 0, STATIC
        ARGFRAME DOVERLAY, 0, STATIC
        FUNCALL HalLcdDisplayPercentBar, HalLcdWriteString
        LOCFRAME ISTACK, 0, STACK
        LOCFRAME PSTACK, 0, STACK
        LOCFRAME XSTACK, 29, STACK
        LOCFRAME IOVERLAY, 0, STATIC
        LOCFRAME DOVERLAY, 0, STATIC
        ARGFRAME ISTACK, 0, STACK
        ARGFRAME PSTACK, 0, STACK
        ARGFRAME XSTACK, 29, STACK
        ARGFRAME IOVERLAY, 0, STATIC
        ARGFRAME DOVERLAY, 0, STATIC
        REQUIRE ?V0
        REQUIRE ?V1
        REQUIRE ?V2
        REQUIRE ?V3
        MOV       A,#-0xc
        LCALL     ?BANKED_ENTER_XDATA
          CFI DPH0 load(1, XDATA, add(CFA_XSP16, literal(-1)))
          CFI DPL0 load(1, XDATA, add(CFA_XSP16, literal(-2)))
          CFI ?BRET_EXT load(1, XDATA, add(CFA_XSP16, literal(-3)))
          CFI ?RET_HIGH load(1, XDATA, add(CFA_XSP16, literal(-4)))
          CFI ?RET_LOW load(1, XDATA, add(CFA_XSP16, literal(-5)))
          CFI R7 load(1, XDATA, add(CFA_XSP16, literal(-6)))
          CFI V3 load(1, XDATA, add(CFA_XSP16, literal(-7)))
          CFI V2 load(1, XDATA, add(CFA_XSP16, literal(-8)))
          CFI V1 load(1, XDATA, add(CFA_XSP16, literal(-9)))
          CFI V0 load(1, XDATA, add(CFA_XSP16, literal(-10)))
          CFI VB load(1, XDATA, add(CFA_XSP16, literal(-11)))
          CFI R6 load(1, XDATA, add(CFA_XSP16, literal(-12)))
          CFI CFA_SP SP+0
          CFI CFA_XSP16 add(XSP16, 12)
        ; Saved register size: 12
        ; Auto size: 17
        MOV       A,#-0x11
        LCALL     ?ALLOC_XSTACK8
          CFI CFA_XSP16 add(XSP16, 29)
        MOV       A,R1
        MOV       R6,A
//  524 #if (HAL_LCD == TRUE)
//  525 
//  526   uint8 percent;
//  527   uint8 leftOver;
//  528   uint8 buf[17];
//  529   uint32 err;
//  530   uint8 x;
//  531 
//  532   /* Write the title: */
//  533   HalLcdWriteString( title, HAL_LCD_LINE_1 );
        ; Setup parameters for call to function HalLcdWriteString
        MOV       R1,#0x1
        LCALL     `??HalLcdWriteString::?relay`; Banked call to: HalLcdWriteString
//  534 
//  535   if ( value > 100 )
        MOV       A,R6
        CLR       C
        SUBB      A,#0x65
        JC        ??HalLcdDisplayPercentBar_0
//  536     value = 100;
        MOV       R6,#0x64
//  537 
//  538   /* convert to blocks */
//  539   percent = (uint8)(value / 10);
??HalLcdDisplayPercentBar_0:
        MOV       B,#0xa
        MOV       A,R6
        DIV       AB
        MOV       R7,A
//  540   leftOver = (uint8)(value % 10);
        MOV       A,R6
        MOV       B,#0xa
        DIV       AB
        MOV       A,B
        MOV       ?V3,A
//  541 
//  542   /* Make window */
//  543   osal_memcpy( buf, "[          ]  ", 15 );
        ; Setup parameters for call to function osal_memcpy
        MOV       ?V0,#`?<Constant "[          ]  ">` & 0xff
        MOV       ?V1,#(`?<Constant "[          ]  ">` >> 8) & 0xff
        MOV       ?V2,#0x0
        MOV       R0,#?V0
        LCALL     ?PUSH_XSTACK_I_THREE
          CFI CFA_XSP16 add(XSP16, 32)
        MOV       R4,#0xf
        MOV       R5,#0x0
        MOV       A,#0x3
        LCALL     ?XSTACK_DISP101_8
        LCALL     ??Subroutine20_0 & 0xFFFF
??CrossCallReturnLabel_25:
        LCALL     ?DEALLOC_XSTACK8
          CFI CFA_XSP16 add(XSP16, 29)
//  544 
//  545   for ( x = 0; x < percent; x ++ )
        MOV       ?V0,#0x0
        MOV       A,R7
        JZ        ??HalLcdDisplayPercentBar_1
//  546   {
//  547     buf[1+x] = '>';
        MOV       R0,A
        MOV       R1,#0x0
        MOV       R2,#0x3e
        MOV       A,#0x1
        LCALL     ?XSTACK_DISP0_8
??HalLcdDisplayPercentBar_2:
        MOV       A,R2
        MOVX      @DPTR,A
        INC       DPTR
        MOV       A,R0
        ADD       A,#-0x1
        DEC       R0
        MOV       A,R1
        ADDC      A,#-0x1
        MOV       R1,A
        ORL       A,R0
        JNZ       ??HalLcdDisplayPercentBar_2
//  548   }
        MOV       ?V0,R7
//  549 
//  550   if ( leftOver >= 5 )
??HalLcdDisplayPercentBar_1:
        MOV       A,?V3
        CLR       C
        SUBB      A,#0x5
        JC        ??HalLcdDisplayPercentBar_3
//  551     buf[1+x] = '+';
        MOV       R0,?V0
        LCALL     ?Subroutine11 & 0xFFFF
??CrossCallReturnLabel_3:
        INC       DPTR
        MOV       A,#0x2b
        MOVX      @DPTR,A
//  552 
//  553   err = (uint32)value;
//  554   _ltoa( err, (uint8*)&buf[13], 10 );
??HalLcdDisplayPercentBar_3:
        ; Setup parameters for call to function _ltoa
        MOV       A,#0xd
        LCALL     ?XSTACK_DISP0_8
        MOV       ?V2,DPL
        MOV       ?V3,DPH
        MOV       R0,#?V2
        LCALL     ?PUSH_XSTACK_I_TWO
          CFI CFA_XSP16 add(XSP16, 31)
        MOV       R1,#0xa
        MOV       A,R6
        MOV       R2,A
        CLR       A
        MOV       R3,A
        LCALL     ??Subroutine17_0 & 0xFFFF
??CrossCallReturnLabel_14:
        LCALL     ?DEALLOC_XSTACK8
          CFI CFA_XSP16 add(XSP16, 29)
//  555 
//  556   HalLcdWriteString( (char*)buf, HAL_LCD_LINE_2 );
        ; Setup parameters for call to function HalLcdWriteString
        MOV       R1,#0x2
        MOV       R2,?XSP + 0
        MOV       R3,?XSP + 1
        LCALL     `??HalLcdWriteString::?relay`; Banked call to: HalLcdWriteString
//  557 
//  558 #endif
//  559 
//  560 }
        MOV       A,#0x11
        LCALL     ?DEALLOC_XSTACK8
          CFI EndBlock cfiBlock58
        REQUIRE ?Subroutine4
        ; // Fall through to label ?Subroutine4

        RSEG BANKED_CODE:HUGECODE:NOROOT(0)
?Subroutine4:
          CFI Block cfiBlock59 Using cfiCommon0
          CFI NoFunction
          CFI CFA_SP SP+0
          CFI CFA_XSP16 add(XSP16, 12)
          CFI VB load(1, XDATA, add(CFA_XSP16, literal(-11)))
          CFI DPL0 load(1, XDATA, add(CFA_XSP16, literal(-2)))
          CFI DPH0 load(1, XDATA, add(CFA_XSP16, literal(-1)))
          CFI R6 load(1, XDATA, add(CFA_XSP16, literal(-12)))
          CFI R7 load(1, XDATA, add(CFA_XSP16, literal(-6)))
          CFI V0 load(1, XDATA, add(CFA_XSP16, literal(-10)))
          CFI V1 load(1, XDATA, add(CFA_XSP16, literal(-9)))
          CFI V2 load(1, XDATA, add(CFA_XSP16, literal(-8)))
          CFI V3 load(1, XDATA, add(CFA_XSP16, literal(-7)))
          CFI ?BRET_EXT load(1, XDATA, add(CFA_XSP16, literal(-3)))
          CFI ?RET_HIGH load(1, XDATA, add(CFA_XSP16, literal(-4)))
          CFI ?RET_LOW load(1, XDATA, add(CFA_XSP16, literal(-5)))
        MOV       R7,#0x4
        LJMP      ?BANKED_LEAVE_XDATA
          CFI EndBlock cfiBlock59

        RSEG BANKED_CODE:HUGECODE:NOROOT(0)
?Subroutine11:
          CFI Block cfiCond60 Using cfiCommon0
          CFI Function HalLcdWriteStringValueValue
          CFI Conditional ??CrossCallReturnLabel_2
          CFI R6 load(1, XDATA, add(CFA_XSP16, literal(-13)))
          CFI VB load(1, XDATA, add(CFA_XSP16, literal(-12)))
          CFI V0 load(1, XDATA, add(CFA_XSP16, literal(-11)))
          CFI V1 load(1, XDATA, add(CFA_XSP16, literal(-10)))
          CFI V2 load(1, XDATA, add(CFA_XSP16, literal(-9)))
          CFI V3 load(1, XDATA, add(CFA_XSP16, literal(-8)))
          CFI V4 load(1, XDATA, add(CFA_XSP16, literal(-7)))
          CFI R7 load(1, XDATA, add(CFA_XSP16, literal(-6)))
          CFI ?RET_LOW load(1, XDATA, add(CFA_XSP16, literal(-5)))
          CFI ?RET_HIGH load(1, XDATA, add(CFA_XSP16, literal(-4)))
          CFI ?BRET_EXT load(1, XDATA, add(CFA_XSP16, literal(-3)))
          CFI DPL0 load(1, XDATA, add(CFA_XSP16, literal(-2)))
          CFI DPH0 load(1, XDATA, add(CFA_XSP16, literal(-1)))
          CFI CFA_SP SP+-2
          CFI CFA_XSP16 add(XSP16, 38)
          CFI Block cfiCond61 Using cfiCommon0
          CFI (cfiCond61) Function HalLcdDisplayPercentBar
          CFI (cfiCond61) Conditional ??CrossCallReturnLabel_3
          CFI (cfiCond61) R6 load(1, XDATA, add(CFA_XSP16, literal(-12)))
          CFI (cfiCond61) VB load(1, XDATA, add(CFA_XSP16, literal(-11)))
          CFI (cfiCond61) V0 load(1, XDATA, add(CFA_XSP16, literal(-10)))
          CFI (cfiCond61) V1 load(1, XDATA, add(CFA_XSP16, literal(-9)))
          CFI (cfiCond61) V2 load(1, XDATA, add(CFA_XSP16, literal(-8)))
          CFI (cfiCond61) V3 load(1, XDATA, add(CFA_XSP16, literal(-7)))
          CFI (cfiCond61) R7 load(1, XDATA, add(CFA_XSP16, literal(-6)))
          CFI (cfiCond61) ?RET_LOW load(1, XDATA, add(CFA_XSP16, literal(-5)))
          CFI (cfiCond61) ?RET_HIGH load(1, XDATA, add(CFA_XSP16, literal(-4)))
          CFI (cfiCond61) ?BRET_EXT load(1, XDATA, add(CFA_XSP16, literal(-3)))
          CFI (cfiCond61) DPL0 load(1, XDATA, add(CFA_XSP16, literal(-2)))
          CFI (cfiCond61) DPH0 load(1, XDATA, add(CFA_XSP16, literal(-1)))
          CFI (cfiCond61) CFA_SP SP+-2
          CFI (cfiCond61) CFA_XSP16 add(XSP16, 29)
          CFI Block cfiPicker62 Using cfiCommon1
          CFI (cfiPicker62) NoFunction
          CFI (cfiPicker62) Picker
        MOV       DPL,?XSP + 0
        MOV       DPH,?XSP + 1
        MOV       A,DPL
        ADD       A,R0
        MOV       DPL,A
        CLR       A
        ADDC      A,DPH
        MOV       DPH,A
        RET
          CFI EndBlock cfiCond60
          CFI EndBlock cfiCond61
          CFI EndBlock cfiPicker62
//  561 
//  562 
//  563 #if (HAL_LCD == TRUE)
//  564 /**************************************************************************************************
//  565  *                                    HARDWARE LCD
//  566  **************************************************************************************************/
//  567 
//  568 /**************************************************************************************************
//  569  * @fn      halLcd_ConfigIO
//  570  *
//  571  * @brief   Configure IO lines needed for LCD control.
//  572  *
//  573  * @param   None
//  574  *
//  575  * @return  None
//  576  **************************************************************************************************/
//  577 static void halLcd_ConfigIO(void)
//  578 {
//  579   /* GPIO configuration */
//  580   HAL_CONFIG_IO_OUTPUT(HAL_LCD_MODE_PORT,  HAL_LCD_MODE_PIN,  1);
//  581   HAL_CONFIG_IO_OUTPUT(HAL_LCD_RESET_PORT, HAL_LCD_RESET_PIN, 1);
//  582   HAL_CONFIG_IO_OUTPUT(HAL_LCD_CS_PORT,    HAL_LCD_CS_PIN,    1);
//  583 /* 30/8/2010 ++ by feibit */
//  584   HAL_CONFIG_IO_OUTPUT(HAL_LCD_BK_PORT,    HAL_LCD_BK_PIN,    1);
//  585 
//  586 }
//  587 
//  588 /**************************************************************************************************
//  589  * @fn      halLcd_ConfigSPI
//  590  *
//  591  * @brief   Configure SPI lines needed for talking to LCD.
//  592  *
//  593  * @param   None
//  594  *
//  595  * @return  None
//  596  **************************************************************************************************/
//  597 static void halLcd_ConfigSPI(void)
//  598 {
//  599   /* UART/SPI Peripheral configuration */
//  600 
//  601    uint8 baud_exponent;
//  602    uint8 baud_mantissa;
//  603 
//  604   /* Set SPI on UART 1 alternative 2 */
//  605   PERCFG |= 0x02;
//  606 
//  607   /* Configure clk, master out and master in lines */
//  608   HAL_CONFIG_IO_PERIPHERAL(HAL_LCD_CLK_PORT,  HAL_LCD_CLK_PIN);
//  609   HAL_CONFIG_IO_PERIPHERAL(HAL_LCD_MOSI_PORT, HAL_LCD_MOSI_PIN);
//  610 /* 30/8/2010 ++ by feibit */
//  611 //  HAL_CONFIG_IO_PERIPHERAL(HAL_LCD_MISO_PORT, HAL_LCD_MISO_PIN);
//  612 
//  613 
//  614   /* Set SPI speed to 1 MHz (the values assume system clk of 32MHz)
//  615    * Confirm on board that this results in 1MHz spi clk.
//  616    */
//  617   baud_exponent = 15;
//  618   baud_mantissa =  0;
//  619 
//  620   /* Configure SPI */
//  621   U1UCR  = 0x80;      /* Flush and goto IDLE state. 8-N-1. */
//  622   U1CSR  = 0x00;      /* SPI mode, master. */
//  623   U1GCR  = HAL_SPI_TRANSFER_MSB_FIRST | HAL_SPI_CLOCK_PHA_0 | HAL_SPI_CLOCK_POL_LO | baud_exponent;
//  624   U1BAUD = baud_mantissa;
//  625 }
//  626 
//  627 /**************************************************************************************************
//  628  * @fn      HalLcd_HW_Init
//  629  *
//  630  * @brief   Initilize HW LCD Driver.
//  631  *
//  632  * @param   None
//  633  *
//  634  * @return  None
//  635  **************************************************************************************************/

        RSEG BANKED_CODE:HUGECODE:NOROOT(0)
//  636 void HalLcd_HW_Init(void)
HalLcd_HW_Init:
          CFI Block cfiBlock63 Using cfiCommon0
          CFI Function HalLcd_HW_Init
        CODE
//  637 {
        FUNCALL HalLcd_HW_Init, HalLcd_HW_Control
        LOCFRAME ISTACK, 2, STACK
        LOCFRAME PSTACK, 0, STACK
        LOCFRAME XSTACK, 0, STACK
        LOCFRAME IOVERLAY, 0, STATIC
        LOCFRAME DOVERLAY, 0, STATIC
        ARGFRAME ISTACK, 2, STACK
        ARGFRAME PSTACK, 0, STACK
        ARGFRAME XSTACK, 0, STACK
        ARGFRAME IOVERLAY, 0, STATIC
        ARGFRAME DOVERLAY, 0, STATIC
        FUNCALL HalLcd_HW_Init, HalLcd_HW_Control
        LOCFRAME ISTACK, 2, STACK
        LOCFRAME PSTACK, 0, STACK
        LOCFRAME XSTACK, 0, STACK
        LOCFRAME IOVERLAY, 0, STATIC
        LOCFRAME DOVERLAY, 0, STATIC
        ARGFRAME ISTACK, 2, STACK
        ARGFRAME PSTACK, 0, STACK
        ARGFRAME XSTACK, 0, STACK
        ARGFRAME IOVERLAY, 0, STATIC
        ARGFRAME DOVERLAY, 0, STATIC
        FUNCALL HalLcd_HW_Init, HalLcd_HW_Control
        LOCFRAME ISTACK, 2, STACK
        LOCFRAME PSTACK, 0, STACK
        LOCFRAME XSTACK, 0, STACK
        LOCFRAME IOVERLAY, 0, STATIC
        LOCFRAME DOVERLAY, 0, STATIC
        ARGFRAME ISTACK, 2, STACK
        ARGFRAME PSTACK, 0, STACK
        ARGFRAME XSTACK, 0, STACK
        ARGFRAME IOVERLAY, 0, STATIC
        ARGFRAME DOVERLAY, 0, STATIC
        FUNCALL HalLcd_HW_Init, HalLcd_HW_Control
        LOCFRAME ISTACK, 2, STACK
        LOCFRAME PSTACK, 0, STACK
        LOCFRAME XSTACK, 0, STACK
        LOCFRAME IOVERLAY, 0, STATIC
        LOCFRAME DOVERLAY, 0, STATIC
        ARGFRAME ISTACK, 2, STACK
        ARGFRAME PSTACK, 0, STACK
        ARGFRAME XSTACK, 0, STACK
        ARGFRAME IOVERLAY, 0, STATIC
        ARGFRAME DOVERLAY, 0, STATIC
        FUNCALL HalLcd_HW_Init, HalLcd_HW_Control
        LOCFRAME ISTACK, 2, STACK
        LOCFRAME PSTACK, 0, STACK
        LOCFRAME XSTACK, 0, STACK
        LOCFRAME IOVERLAY, 0, STATIC
        LOCFRAME DOVERLAY, 0, STATIC
        ARGFRAME ISTACK, 2, STACK
        ARGFRAME PSTACK, 0, STACK
        ARGFRAME XSTACK, 0, STACK
        ARGFRAME IOVERLAY, 0, STATIC
        ARGFRAME DOVERLAY, 0, STATIC
        FUNCALL HalLcd_HW_Init, HalLcd_HW_Control
        LOCFRAME ISTACK, 2, STACK
        LOCFRAME PSTACK, 0, STACK
        LOCFRAME XSTACK, 0, STACK
        LOCFRAME IOVERLAY, 0, STATIC
        LOCFRAME DOVERLAY, 0, STATIC
        ARGFRAME ISTACK, 2, STACK
        ARGFRAME PSTACK, 0, STACK
        ARGFRAME XSTACK, 0, STACK
        ARGFRAME IOVERLAY, 0, STATIC
        ARGFRAME DOVERLAY, 0, STATIC
        FUNCALL HalLcd_HW_Init, HalLcd_HW_Control
        LOCFRAME ISTACK, 2, STACK
        LOCFRAME PSTACK, 0, STACK
        LOCFRAME XSTACK, 0, STACK
        LOCFRAME IOVERLAY, 0, STATIC
        LOCFRAME DOVERLAY, 0, STATIC
        ARGFRAME ISTACK, 2, STACK
        ARGFRAME PSTACK, 0, STACK
        ARGFRAME XSTACK, 0, STACK
        ARGFRAME IOVERLAY, 0, STATIC
        ARGFRAME DOVERLAY, 0, STATIC
        FUNCALL HalLcd_HW_Init, HalLcd_HW_Control
        LOCFRAME ISTACK, 2, STACK
        LOCFRAME PSTACK, 0, STACK
        LOCFRAME XSTACK, 0, STACK
        LOCFRAME IOVERLAY, 0, STATIC
        LOCFRAME DOVERLAY, 0, STATIC
        ARGFRAME ISTACK, 2, STACK
        ARGFRAME PSTACK, 0, STACK
        ARGFRAME XSTACK, 0, STACK
        ARGFRAME IOVERLAY, 0, STATIC
        ARGFRAME DOVERLAY, 0, STATIC
        FUNCALL HalLcd_HW_Init, HalLcd_HW_Control
        LOCFRAME ISTACK, 2, STACK
        LOCFRAME PSTACK, 0, STACK
        LOCFRAME XSTACK, 0, STACK
        LOCFRAME IOVERLAY, 0, STATIC
        LOCFRAME DOVERLAY, 0, STATIC
        ARGFRAME ISTACK, 2, STACK
        ARGFRAME PSTACK, 0, STACK
        ARGFRAME XSTACK, 0, STACK
        ARGFRAME IOVERLAY, 0, STATIC
        ARGFRAME DOVERLAY, 0, STATIC
        FUNCALL HalLcd_HW_Init, HalLcd_HW_Control
        LOCFRAME ISTACK, 2, STACK
        LOCFRAME PSTACK, 0, STACK
        LOCFRAME XSTACK, 0, STACK
        LOCFRAME IOVERLAY, 0, STATIC
        LOCFRAME DOVERLAY, 0, STATIC
        ARGFRAME ISTACK, 2, STACK
        ARGFRAME PSTACK, 0, STACK
        ARGFRAME XSTACK, 0, STACK
        ARGFRAME IOVERLAY, 0, STATIC
        ARGFRAME DOVERLAY, 0, STATIC
        FUNCALL HalLcd_HW_Init, HalLcd_HW_SetContrast
        LOCFRAME ISTACK, 2, STACK
        LOCFRAME PSTACK, 0, STACK
        LOCFRAME XSTACK, 0, STACK
        LOCFRAME IOVERLAY, 0, STATIC
        LOCFRAME DOVERLAY, 0, STATIC
        ARGFRAME ISTACK, 2, STACK
        ARGFRAME PSTACK, 0, STACK
        ARGFRAME XSTACK, 0, STACK
        ARGFRAME IOVERLAY, 0, STATIC
        ARGFRAME DOVERLAY, 0, STATIC
        FUNCALL HalLcd_HW_Init, HalLcd_HW_Clear
        LOCFRAME ISTACK, 2, STACK
        LOCFRAME PSTACK, 0, STACK
        LOCFRAME XSTACK, 0, STACK
        LOCFRAME IOVERLAY, 0, STATIC
        LOCFRAME DOVERLAY, 0, STATIC
        ARGFRAME ISTACK, 2, STACK
        ARGFRAME PSTACK, 0, STACK
        ARGFRAME XSTACK, 0, STACK
        ARGFRAME IOVERLAY, 0, STATIC
        ARGFRAME DOVERLAY, 0, STATIC
        PUSH      DPL
          CFI DPL0 Frame(CFA_SP, 4)
          CFI CFA_SP SP+-4
        PUSH      DPH
          CFI DPH0 Frame(CFA_SP, 5)
          CFI CFA_SP SP+-5
        ; Saved register size: 2
        ; Auto size: 0
//  638     /* Initialize LCD IO lines */
//  639     halLcd_ConfigIO();
        ANL       0xf3,#0xfe
        SETB      0x80.0
        ORL       0xfd,#0x1
        ANL       0xf4,#0xfd
        SETB      0x90.1
        ORL       0xfe,#0x2
        ANL       0xf4,#0xfb
        SETB      0x90.2
        ORL       0xfe,#0x4
        ANL       0xf3,#0x7f
        SETB      0x80.7
        ORL       0xfd,#0x80
//  640 
//  641     /* Initialize SPI */
//  642     halLcd_ConfigSPI();
        ORL       0xf1,#0x2
        ORL       0xf4,#0x20
        ORL       0xf4,#0x40
        MOV       0xfb,#-0x80
        MOV       0xf8,#0x0
        MOV       0xfc,#0x2f
        MOV       0xfa,#0x0
//  643 
//  644     HalLcd_HW_Control(0xaf);    //开显示
        ; Setup parameters for call to function HalLcd_HW_Control
        MOV       R1,#-0x51
        LCALL     `??HalLcd_HW_Control::?relay`; Banked call to: HalLcd_HW_Control
//  645     HalLcd_HW_Control(0x40);    //显示起始行为0
        ; Setup parameters for call to function HalLcd_HW_Control
        MOV       R1,#0x40
        LCALL     `??HalLcd_HW_Control::?relay`; Banked call to: HalLcd_HW_Control
//  646     HalLcd_HW_Control(0xa0);    //RAM列地址与列驱动同顺序
        ; Setup parameters for call to function HalLcd_HW_Control
        MOV       R1,#-0x60
        LCALL     `??HalLcd_HW_Control::?relay`; Banked call to: HalLcd_HW_Control
//  647     HalLcd_HW_Control(0xa6);    //正向显示
        ; Setup parameters for call to function HalLcd_HW_Control
        MOV       R1,#-0x5a
        LCALL     `??HalLcd_HW_Control::?relay`; Banked call to: HalLcd_HW_Control
//  648     HalLcd_HW_Control(0xa4);    //显示全亮功能关闭
        ; Setup parameters for call to function HalLcd_HW_Control
        MOV       R1,#-0x5c
        LCALL     `??HalLcd_HW_Control::?relay`; Banked call to: HalLcd_HW_Control
//  649     HalLcd_HW_Control(0xa2);    //LCD偏压比1/9
        ; Setup parameters for call to function HalLcd_HW_Control
        MOV       R1,#-0x5e
        LCALL     `??HalLcd_HW_Control::?relay`; Banked call to: HalLcd_HW_Control
//  650     HalLcd_HW_Control(0xc8);    //行驱动方向为反向
        ; Setup parameters for call to function HalLcd_HW_Control
        MOV       R1,#-0x38
        LCALL     `??HalLcd_HW_Control::?relay`; Banked call to: HalLcd_HW_Control
//  651     HalLcd_HW_Control(0x2f);    //启用内部LCD驱动电源
        ; Setup parameters for call to function HalLcd_HW_Control
        MOV       R1,#0x2f
        LCALL     `??HalLcd_HW_Control::?relay`; Banked call to: HalLcd_HW_Control
//  652     HalLcd_HW_Control(0xf8);    //升压电路设置指令代码
        ; Setup parameters for call to function HalLcd_HW_Control
        MOV       R1,#-0x8
        LCALL     `??HalLcd_HW_Control::?relay`; Banked call to: HalLcd_HW_Control
//  653     HalLcd_HW_Control(0x00);    //倍压设置为4X
        ; Setup parameters for call to function HalLcd_HW_Control
        MOV       R1,#0x0
        LCALL     `??HalLcd_HW_Control::?relay`; Banked call to: HalLcd_HW_Control
//  654     
//  655     
//  656     HalLcd_HW_SetContrast(0x68);//set contrast 对比度
        ; Setup parameters for call to function HalLcd_HW_SetContrast
        MOV       R1,#0x68
        LCALL     `??HalLcd_HW_SetContrast::?relay`; Banked call to: HalLcd_HW_SetContrast
//  657  
//  658     
//  659     /* Clear the display */
//  660     HalLcd_HW_Clear();
        ; Setup parameters for call to function HalLcd_HW_Clear
        LCALL     `??HalLcd_HW_Clear::?relay`; Banked call to: HalLcd_HW_Clear
//  661 
//  662 }
        LJMP      ?Subroutine0 & 0xFFFF
          CFI EndBlock cfiBlock63
        REQUIRE PERCFG
        REQUIRE P1SEL
        REQUIRE U1UCR
        REQUIRE _A_U1CSR
        REQUIRE U1GCR
        REQUIRE U1BAUD
        REQUIRE P0SEL
        REQUIRE _A_P0
        REQUIRE P0DIR
        REQUIRE _A_P1
        REQUIRE P1DIR
//  663 
//  664 /**************************************************************************************************
//  665  * @fn      HalLcd_HW_Control
//  666  *
//  667  * @brief   Write 1 command to the LCD
//  668  *
//  669  * @param   uint8 cmd - command to be written to the LCD
//  670  *
//  671  * @return  None
//  672  **************************************************************************************************/

        RSEG BANKED_CODE:HUGECODE:NOROOT(0)
//  673 void HalLcd_HW_Control(uint8 cmd)
HalLcd_HW_Control:
          CFI Block cfiBlock64 Using cfiCommon0
          CFI Function HalLcd_HW_Control
        CODE
//  674 {
        ; Saved register size: 0
        ; Auto size: 0
//  675   LCD_SPI_BEGIN();
        CLR       0x90.2
//  676   LCD_DO_CONTROL();
        CLR       0x80.0
//  677   LCD_SPI_TX(cmd);
        ANL       0xf8,#0xf9
        MOV       0xf9,R1
??HalLcd_HW_Control_0:
        MOV       C,0xf8.1
        JNC       ??HalLcd_HW_Control_0
//  678   LCD_SPI_WAIT_RXRDY();
??HalLcd_HW_Control_1:
        MOV       C,0xf8.1
        JNC       ??HalLcd_HW_Control_1
//  679   LCD_SPI_END();
        NOP
        NOP
        NOP
        NOP
          CFI EndBlock cfiBlock64
        REQUIRE ?Subroutine1
        REQUIRE _A_P1
        REQUIRE _A_P0
        REQUIRE _A_U1CSR
        REQUIRE U1DBUF
        ; // Fall through to label ?Subroutine1
//  680 }

        RSEG BANKED_CODE:HUGECODE:NOROOT(0)
?Subroutine1:
          CFI Block cfiBlock65 Using cfiCommon0
          CFI NoFunction
        SETB      0x90.2
        LJMP      ?BRET
          CFI EndBlock cfiBlock65
//  681 
//  682 /**************************************************************************************************
//  683  * @fn      HalLcd_HW_Write
//  684  *
//  685  * @brief   Write 1 byte to the LCD
//  686  *
//  687  * @param   uint8 data - data to be written to the LCD
//  688  *
//  689  * @return  None
//  690  **************************************************************************************************/

        RSEG BANKED_CODE:HUGECODE:NOROOT(0)
//  691 void HalLcd_HW_Write(uint8 data)
HalLcd_HW_Write:
          CFI Block cfiBlock66 Using cfiCommon0
          CFI Function HalLcd_HW_Write
        CODE
//  692 {
        ; Saved register size: 0
        ; Auto size: 0
//  693   LCD_SPI_BEGIN();
        CLR       0x90.2
//  694   LCD_DO_WRITE();
        SETB      0x80.0
//  695   LCD_SPI_TX(data);
        ANL       0xf8,#0xf9
        MOV       0xf9,R1
??HalLcd_HW_Write_0:
        MOV       C,0xf8.1
        JNC       ??HalLcd_HW_Write_0
//  696   LCD_SPI_WAIT_RXRDY();
??HalLcd_HW_Write_1:
        MOV       C,0xf8.1
        JNC       ??HalLcd_HW_Write_1
//  697   LCD_SPI_END();
        NOP
        NOP
        NOP
        NOP
        SJMP      ?Subroutine1
          CFI EndBlock cfiBlock66
        REQUIRE _A_P1
        REQUIRE _A_P0
        REQUIRE _A_U1CSR
        REQUIRE U1DBUF
//  698 }
//  699 
//  700 /**************************************************************************************************
//  701  * @fn          HalLcd_HW_SetContrast
//  702  *
//  703  * @brief       Set display contrast
//  704  *
//  705  * @param       uint8 value - contrast value
//  706  *
//  707  * @return      none
//  708  **************************************************************************************************/

        RSEG BANKED_CODE:HUGECODE:NOROOT(0)
//  709 void HalLcd_HW_SetContrast(uint8 value)
HalLcd_HW_SetContrast:
          CFI Block cfiBlock67 Using cfiCommon0
          CFI Function HalLcd_HW_SetContrast
        CODE
//  710 {
        FUNCALL HalLcd_HW_SetContrast, HalLcd_HW_Control
        LOCFRAME ISTACK, 0, STACK
        LOCFRAME PSTACK, 0, STACK
        LOCFRAME XSTACK, 9, STACK
        LOCFRAME IOVERLAY, 0, STATIC
        LOCFRAME DOVERLAY, 0, STATIC
        ARGFRAME ISTACK, 0, STACK
        ARGFRAME PSTACK, 0, STACK
        ARGFRAME XSTACK, 9, STACK
        ARGFRAME IOVERLAY, 0, STATIC
        ARGFRAME DOVERLAY, 0, STATIC
        FUNCALL HalLcd_HW_SetContrast, HalLcd_HW_Control
        LOCFRAME ISTACK, 0, STACK
        LOCFRAME PSTACK, 0, STACK
        LOCFRAME XSTACK, 9, STACK
        LOCFRAME IOVERLAY, 0, STATIC
        LOCFRAME DOVERLAY, 0, STATIC
        ARGFRAME ISTACK, 0, STACK
        ARGFRAME PSTACK, 0, STACK
        ARGFRAME XSTACK, 9, STACK
        ARGFRAME IOVERLAY, 0, STATIC
        ARGFRAME DOVERLAY, 0, STATIC
        MOV       A,#-0x9
        LCALL     ?BANKED_ENTER_XDATA
          CFI DPH0 load(1, XDATA, add(CFA_XSP16, literal(-1)))
          CFI DPL0 load(1, XDATA, add(CFA_XSP16, literal(-2)))
          CFI ?BRET_EXT load(1, XDATA, add(CFA_XSP16, literal(-3)))
          CFI ?RET_HIGH load(1, XDATA, add(CFA_XSP16, literal(-4)))
          CFI ?RET_LOW load(1, XDATA, add(CFA_XSP16, literal(-5)))
          CFI R7 load(1, XDATA, add(CFA_XSP16, literal(-6)))
          CFI V0 load(1, XDATA, add(CFA_XSP16, literal(-7)))
          CFI VB load(1, XDATA, add(CFA_XSP16, literal(-8)))
          CFI R6 load(1, XDATA, add(CFA_XSP16, literal(-9)))
          CFI CFA_SP SP+0
          CFI CFA_XSP16 add(XSP16, 9)
        ; Saved register size: 9
        ; Auto size: 0
        MOV       A,R1
        MOV       R6,A
//  711     HalLcd_HW_Control(CONTRAST_CTRL_REGISTER);    
        ; Setup parameters for call to function HalLcd_HW_Control
        MOV       R1,#-0x7f
        LCALL     `??HalLcd_HW_Control::?relay`; Banked call to: HalLcd_HW_Control
//  712     HalLcd_HW_Control(value);   
        ; Setup parameters for call to function HalLcd_HW_Control
        MOV       A,R6
        LJMP      ?Subroutine2 & 0xFFFF
//  713 }
          CFI EndBlock cfiBlock67
//  714 
//  715 /**************************************************************************************************
//  716  * @fn      HalLcd_HW_Clear
//  717  *
//  718  * @brief   Clear the HW LCD
//  719  *
//  720  * @param   None
//  721  *
//  722  * @return  None
//  723  **************************************************************************************************/

        RSEG BANKED_CODE:HUGECODE:NOROOT(0)
//  724 void HalLcd_HW_Clear(void)
HalLcd_HW_Clear:
          CFI Block cfiBlock68 Using cfiCommon0
          CFI Function HalLcd_HW_Clear
        CODE
//  725 {
        FUNCALL HalLcd_HW_Clear, SET_DDRAM_ADDR
        LOCFRAME ISTACK, 0, STACK
        LOCFRAME PSTACK, 0, STACK
        LOCFRAME XSTACK, 9, STACK
        LOCFRAME IOVERLAY, 0, STATIC
        LOCFRAME DOVERLAY, 0, STATIC
        ARGFRAME ISTACK, 0, STACK
        ARGFRAME PSTACK, 0, STACK
        ARGFRAME XSTACK, 9, STACK
        ARGFRAME IOVERLAY, 0, STATIC
        ARGFRAME DOVERLAY, 0, STATIC
        FUNCALL HalLcd_HW_Clear, HalLcd_HW_Write
        LOCFRAME ISTACK, 0, STACK
        LOCFRAME PSTACK, 0, STACK
        LOCFRAME XSTACK, 9, STACK
        LOCFRAME IOVERLAY, 0, STATIC
        LOCFRAME DOVERLAY, 0, STATIC
        ARGFRAME ISTACK, 0, STACK
        ARGFRAME PSTACK, 0, STACK
        ARGFRAME XSTACK, 9, STACK
        ARGFRAME IOVERLAY, 0, STATIC
        ARGFRAME DOVERLAY, 0, STATIC
        MOV       A,#-0x9
        LCALL     ?BANKED_ENTER_XDATA
          CFI DPH0 load(1, XDATA, add(CFA_XSP16, literal(-1)))
          CFI DPL0 load(1, XDATA, add(CFA_XSP16, literal(-2)))
          CFI ?BRET_EXT load(1, XDATA, add(CFA_XSP16, literal(-3)))
          CFI ?RET_HIGH load(1, XDATA, add(CFA_XSP16, literal(-4)))
          CFI ?RET_LOW load(1, XDATA, add(CFA_XSP16, literal(-5)))
          CFI R7 load(1, XDATA, add(CFA_XSP16, literal(-6)))
          CFI V0 load(1, XDATA, add(CFA_XSP16, literal(-7)))
          CFI VB load(1, XDATA, add(CFA_XSP16, literal(-8)))
          CFI R6 load(1, XDATA, add(CFA_XSP16, literal(-9)))
          CFI CFA_SP SP+0
          CFI CFA_XSP16 add(XSP16, 9)
        ; Saved register size: 9
        ; Auto size: 0
//  726 	uint8 i,j;
//  727 	for (i = 0; i < 8; i++)
        MOV       R7,#0x0
//  728 	{
//  729 		for (j = 0; j < 132; j++)
??HalLcd_HW_Clear_0:
        MOV       R6,#0x0
//  730 		{
//  731 			SET_DDRAM_ADDR(j,i);
??HalLcd_HW_Clear_1:
        ; Setup parameters for call to function SET_DDRAM_ADDR
        MOV       A,R7
        MOV       R2,A
        MOV       A,R6
        MOV       R1,A
        LCALL     `??SET_DDRAM_ADDR::?relay`; Banked call to: SET_DDRAM_ADDR
//  732 			HalLcd_HW_Write(0);
        ; Setup parameters for call to function HalLcd_HW_Write
        MOV       R1,#0x0
        LCALL     `??HalLcd_HW_Write::?relay`; Banked call to: HalLcd_HW_Write
//  733 		}
        INC       R6
        MOV       A,R6
        CLR       C
        SUBB      A,#-0x7c
        JC        ??HalLcd_HW_Clear_1
//  734 	}
        INC       R7
        MOV       A,R7
        CLR       C
        SUBB      A,#0x8
        JC        ??HalLcd_HW_Clear_0
//  735 }
        LJMP      ??Subroutine14_0 & 0xFFFF
          CFI EndBlock cfiBlock68
//  736 
//  737 /**************************************************************************************************
//  738  * @fn      HalLcd_HW_WriteChar
//  739  *
//  740  * @brief   Write one char to the display
//  741  *
//  742  * @param   uint8 line - line number that the char will be displayed
//  743  *          uint8 col - colum where the char will be displayed
//  744  *
//  745  * @return  None
//  746  **************************************************************************************************/

        RSEG BANKED_CODE:HUGECODE:NOROOT(0)
//  747 void HalLcd_HW_WriteChar(uint8 line, uint8 col, char text)
HalLcd_HW_WriteChar:
          CFI Block cfiBlock69 Using cfiCommon0
          CFI Function HalLcd_HW_WriteChar
        CODE
//  748 {
        FUNCALL HalLcd_HW_WriteChar, SET_DDRAM_ADDR
        LOCFRAME ISTACK, 0, STACK
        LOCFRAME PSTACK, 0, STACK
        LOCFRAME XSTACK, 12, STACK
        LOCFRAME IOVERLAY, 0, STATIC
        LOCFRAME DOVERLAY, 0, STATIC
        ARGFRAME ISTACK, 0, STACK
        ARGFRAME PSTACK, 0, STACK
        ARGFRAME XSTACK, 12, STACK
        ARGFRAME IOVERLAY, 0, STATIC
        ARGFRAME DOVERLAY, 0, STATIC
        FUNCALL HalLcd_HW_WriteChar, HalLcd_Convert_DZK
        LOCFRAME ISTACK, 0, STACK
        LOCFRAME PSTACK, 0, STACK
        LOCFRAME XSTACK, 12, STACK
        LOCFRAME IOVERLAY, 0, STATIC
        LOCFRAME DOVERLAY, 0, STATIC
        ARGFRAME ISTACK, 0, STACK
        ARGFRAME PSTACK, 0, STACK
        ARGFRAME XSTACK, 12, STACK
        ARGFRAME IOVERLAY, 0, STATIC
        ARGFRAME DOVERLAY, 0, STATIC
        FUNCALL HalLcd_HW_WriteChar, HalLcd_HW_Write
        LOCFRAME ISTACK, 0, STACK
        LOCFRAME PSTACK, 0, STACK
        LOCFRAME XSTACK, 12, STACK
        LOCFRAME IOVERLAY, 0, STATIC
        LOCFRAME DOVERLAY, 0, STATIC
        ARGFRAME ISTACK, 0, STACK
        ARGFRAME PSTACK, 0, STACK
        ARGFRAME XSTACK, 12, STACK
        ARGFRAME IOVERLAY, 0, STATIC
        ARGFRAME DOVERLAY, 0, STATIC
        FUNCALL HalLcd_HW_WriteChar, SET_DDRAM_ADDR
        LOCFRAME ISTACK, 0, STACK
        LOCFRAME PSTACK, 0, STACK
        LOCFRAME XSTACK, 12, STACK
        LOCFRAME IOVERLAY, 0, STATIC
        LOCFRAME DOVERLAY, 0, STATIC
        ARGFRAME ISTACK, 0, STACK
        ARGFRAME PSTACK, 0, STACK
        ARGFRAME XSTACK, 12, STACK
        ARGFRAME IOVERLAY, 0, STATIC
        ARGFRAME DOVERLAY, 0, STATIC
        FUNCALL HalLcd_HW_WriteChar, HalLcd_Convert_DZK
        LOCFRAME ISTACK, 0, STACK
        LOCFRAME PSTACK, 0, STACK
        LOCFRAME XSTACK, 12, STACK
        LOCFRAME IOVERLAY, 0, STATIC
        LOCFRAME DOVERLAY, 0, STATIC
        ARGFRAME ISTACK, 0, STACK
        ARGFRAME PSTACK, 0, STACK
        ARGFRAME XSTACK, 12, STACK
        ARGFRAME IOVERLAY, 0, STATIC
        ARGFRAME DOVERLAY, 0, STATIC
        FUNCALL HalLcd_HW_WriteChar, HalLcd_HW_Write
        LOCFRAME ISTACK, 0, STACK
        LOCFRAME PSTACK, 0, STACK
        LOCFRAME XSTACK, 12, STACK
        LOCFRAME IOVERLAY, 0, STATIC
        LOCFRAME DOVERLAY, 0, STATIC
        ARGFRAME ISTACK, 0, STACK
        ARGFRAME PSTACK, 0, STACK
        ARGFRAME XSTACK, 12, STACK
        ARGFRAME IOVERLAY, 0, STATIC
        ARGFRAME DOVERLAY, 0, STATIC
        REQUIRE ?V0
        REQUIRE ?V1
        REQUIRE ?V2
        REQUIRE ?V3
        MOV       A,#-0xc
        LCALL     ?BANKED_ENTER_XDATA
          CFI DPH0 load(1, XDATA, add(CFA_XSP16, literal(-1)))
          CFI DPL0 load(1, XDATA, add(CFA_XSP16, literal(-2)))
          CFI ?BRET_EXT load(1, XDATA, add(CFA_XSP16, literal(-3)))
          CFI ?RET_HIGH load(1, XDATA, add(CFA_XSP16, literal(-4)))
          CFI ?RET_LOW load(1, XDATA, add(CFA_XSP16, literal(-5)))
          CFI R7 load(1, XDATA, add(CFA_XSP16, literal(-6)))
          CFI V3 load(1, XDATA, add(CFA_XSP16, literal(-7)))
          CFI V2 load(1, XDATA, add(CFA_XSP16, literal(-8)))
          CFI V1 load(1, XDATA, add(CFA_XSP16, literal(-9)))
          CFI V0 load(1, XDATA, add(CFA_XSP16, literal(-10)))
          CFI VB load(1, XDATA, add(CFA_XSP16, literal(-11)))
          CFI R6 load(1, XDATA, add(CFA_XSP16, literal(-12)))
          CFI CFA_SP SP+0
          CFI CFA_XSP16 add(XSP16, 12)
        ; Saved register size: 12
        ; Auto size: 0
        MOV       ?V1,R1
        MOV       ?V2,R2
        MOV       ?V3,R3
//  749     uint8 j;
//  750     uint16 addr;
//  751     uint8 cvt_result;
//  752 
//  753     if (col < LCD_MAX_LINE_LENGTH && line <= HAL_LCD_LINE_4)
        MOV       A,R2
        CLR       C
        SUBB      A,#0x10
        JNC       ??HalLcd_HW_WriteChar_0
        MOV       A,R1
        CLR       C
        SUBB      A,#0x5
        JNC       ??HalLcd_HW_WriteChar_0
//  754     {
//  755             
//  756         //write first line 
//  757         SET_DDRAM_ADDR(col * 8, (line - 1) * 2);
        ; Setup parameters for call to function SET_DDRAM_ADDR
        MOV       A,#-0x1
        ADD       A,R1
        CLR       C
        RLC       A
        MOV       R2,A
        MOV       A,?V2
        RLC       A
        RLC       A
        RLC       A
        ANL       A,#0xf8
        MOV       R1,A
        LCALL     `??SET_DDRAM_ADDR::?relay`; Banked call to: SET_DDRAM_ADDR
//  758         addr = (text - 0x20)*12;
        MOV       A,?V3
        ADD       A,#-0x20
        MOV       R6,A
        CLR       A
        ADDC      A,#-0x1
        MOV       R7,A
        MOV       A,R6
        MOV       B,#0xc
        MUL       AB
        MOV       R6,A
        MOV       R0,B
        MOV       B,#0xc
        MOV       A,R7
        MUL       AB
        ADD       A,R0
        MOV       R7,A
//  759 
//  760         for (j = 0; j < 8; j++)
        MOV       ?V0,#0x0
//  761         {
//  762              cvt_result = HalLcd_Convert_DZK(j,addr);
//  763              cvt_result = cvt_result << 2;
//  764         	HalLcd_HW_Write(cvt_result);
??HalLcd_HW_WriteChar_1:
        ; Setup parameters for call to function HalLcd_HW_Write
        ; Setup parameters for call to function HalLcd_Convert_DZK
        MOV       A,R6
        MOV       R2,A
        MOV       A,R7
        MOV       R3,A
        MOV       R1,?V0
        LCALL     `??HalLcd_Convert_DZK::?relay`; Banked call to: HalLcd_Convert_DZK
        MOV       A,R1
        RLC       A
        RLC       A
        ANL       A,#0xfc
        MOV       R1,A
        LCALL     ?Subroutine13 & 0xFFFF
//  765         }
??CrossCallReturnLabel_6:
        JC        ??HalLcd_HW_WriteChar_1
//  766 
//  767         //write second line 
//  768         SET_DDRAM_ADDR(col * 8, (line - 1) * 2 + 1);
        ; Setup parameters for call to function SET_DDRAM_ADDR
        MOV       A,?V1
        CLR       C
        RLC       A
        ADD       A,#-0x1
        MOV       R2,A
        MOV       A,?V2
        RLC       A
        RLC       A
        RLC       A
        ANL       A,#0xf8
        MOV       R1,A
        LCALL     `??SET_DDRAM_ADDR::?relay`; Banked call to: SET_DDRAM_ADDR
//  769         addr = addr + 6;
        MOV       A,R6
        ADD       A,#0x6
        MOV       R6,A
        CLR       A
        ADDC      A,R7
        MOV       R7,A
//  770 
//  771         for (j = 0; j < 8; j++)
        MOV       ?V0,#0x0
//  772         {
//  773              cvt_result = HalLcd_Convert_DZK(j,addr);
//  774         	HalLcd_HW_Write(cvt_result);
??HalLcd_HW_WriteChar_2:
        ; Setup parameters for call to function HalLcd_HW_Write
        ; Setup parameters for call to function HalLcd_Convert_DZK
        MOV       A,R6
        MOV       R2,A
        MOV       A,R7
        MOV       R3,A
        MOV       R1,?V0
        LCALL     `??HalLcd_Convert_DZK::?relay`; Banked call to: HalLcd_Convert_DZK
        LCALL     ?Subroutine13 & 0xFFFF
//  775         }
//  776 
//  777     }
??CrossCallReturnLabel_7:
        JC        ??HalLcd_HW_WriteChar_2
//  778     else
//  779     {
//  780         return;
//  781     }
//  782 }
??HalLcd_HW_WriteChar_0:
        LJMP      ?Subroutine4 & 0xFFFF
          CFI EndBlock cfiBlock69

        RSEG BANKED_CODE:HUGECODE:NOROOT(0)
?Subroutine13:
          CFI Block cfiCond70 Using cfiCommon0
          CFI Function HalLcd_HW_WriteChar
          CFI Conditional ??CrossCallReturnLabel_6
          CFI R6 load(1, XDATA, add(CFA_XSP16, literal(-12)))
          CFI VB load(1, XDATA, add(CFA_XSP16, literal(-11)))
          CFI V0 load(1, XDATA, add(CFA_XSP16, literal(-10)))
          CFI V1 load(1, XDATA, add(CFA_XSP16, literal(-9)))
          CFI V2 load(1, XDATA, add(CFA_XSP16, literal(-8)))
          CFI V3 load(1, XDATA, add(CFA_XSP16, literal(-7)))
          CFI R7 load(1, XDATA, add(CFA_XSP16, literal(-6)))
          CFI ?RET_LOW load(1, XDATA, add(CFA_XSP16, literal(-5)))
          CFI ?RET_HIGH load(1, XDATA, add(CFA_XSP16, literal(-4)))
          CFI ?BRET_EXT load(1, XDATA, add(CFA_XSP16, literal(-3)))
          CFI DPL0 load(1, XDATA, add(CFA_XSP16, literal(-2)))
          CFI DPH0 load(1, XDATA, add(CFA_XSP16, literal(-1)))
          CFI CFA_SP SP+-2
          CFI CFA_XSP16 add(XSP16, 12)
          CFI Block cfiCond71 Using cfiCommon0
          CFI (cfiCond71) Function HalLcd_HW_WriteChar
          CFI (cfiCond71) Conditional ??CrossCallReturnLabel_7
          CFI (cfiCond71) R6 load(1, XDATA, add(CFA_XSP16, literal(-12)))
          CFI (cfiCond71) VB load(1, XDATA, add(CFA_XSP16, literal(-11)))
          CFI (cfiCond71) V0 load(1, XDATA, add(CFA_XSP16, literal(-10)))
          CFI (cfiCond71) V1 load(1, XDATA, add(CFA_XSP16, literal(-9)))
          CFI (cfiCond71) V2 load(1, XDATA, add(CFA_XSP16, literal(-8)))
          CFI (cfiCond71) V3 load(1, XDATA, add(CFA_XSP16, literal(-7)))
          CFI (cfiCond71) R7 load(1, XDATA, add(CFA_XSP16, literal(-6)))
          CFI (cfiCond71) ?RET_LOW load(1, XDATA, add(CFA_XSP16, literal(-5)))
          CFI (cfiCond71) ?RET_HIGH load(1, XDATA, add(CFA_XSP16, literal(-4)))
          CFI (cfiCond71) ?BRET_EXT load(1, XDATA, add(CFA_XSP16, literal(-3)))
          CFI (cfiCond71) DPL0 load(1, XDATA, add(CFA_XSP16, literal(-2)))
          CFI (cfiCond71) DPH0 load(1, XDATA, add(CFA_XSP16, literal(-1)))
          CFI (cfiCond71) CFA_SP SP+-2
          CFI (cfiCond71) CFA_XSP16 add(XSP16, 12)
          CFI Block cfiPicker72 Using cfiCommon1
          CFI (cfiPicker72) NoFunction
          CFI (cfiPicker72) Picker
        LCALL     `??HalLcd_HW_Write::?relay`; Banked call to: HalLcd_HW_Write
        INC       ?V0
        MOV       A,?V0
        CLR       C
        SUBB      A,#0x8
        RET
          CFI EndBlock cfiCond70
          CFI EndBlock cfiCond71
          CFI EndBlock cfiPicker72
//  783 

        RSEG BANKED_CODE:HUGECODE:NOROOT(0)
//  784 uint8 HalLcd_Convert_DZK(uint8 index, uint16 addr)
HalLcd_Convert_DZK:
          CFI Block cfiBlock73 Using cfiCommon0
          CFI Function HalLcd_Convert_DZK
        CODE
//  785 {
        REQUIRE ?V0
        REQUIRE ?V1
        REQUIRE ?V2
        MOV       A,#-0xb
        LCALL     ?BANKED_ENTER_XDATA
          CFI DPH0 load(1, XDATA, add(CFA_XSP16, literal(-1)))
          CFI DPL0 load(1, XDATA, add(CFA_XSP16, literal(-2)))
          CFI ?BRET_EXT load(1, XDATA, add(CFA_XSP16, literal(-3)))
          CFI ?RET_HIGH load(1, XDATA, add(CFA_XSP16, literal(-4)))
          CFI ?RET_LOW load(1, XDATA, add(CFA_XSP16, literal(-5)))
          CFI R7 load(1, XDATA, add(CFA_XSP16, literal(-6)))
          CFI V2 load(1, XDATA, add(CFA_XSP16, literal(-7)))
          CFI V1 load(1, XDATA, add(CFA_XSP16, literal(-8)))
          CFI V0 load(1, XDATA, add(CFA_XSP16, literal(-9)))
          CFI VB load(1, XDATA, add(CFA_XSP16, literal(-10)))
          CFI R6 load(1, XDATA, add(CFA_XSP16, literal(-11)))
          CFI CFA_SP SP+0
          CFI CFA_XSP16 add(XSP16, 11)
        ; Saved register size: 11
        ; Auto size: 8
        MOV       A,#-0x8
        LCALL     ?ALLOC_XSTACK8
          CFI CFA_XSP16 add(XSP16, 19)
        MOV       A,R1
        MOV       R6,A
//  786     uint8 return_val = 0;
        MOV       R1,#0x0
//  787     uint8 j;
//  788     uint8 temp;
//  789     uint8 mask_array[8] = {BIT7,BIT6,BIT5,BIT4,BIT3,BIT2,BIT1,BIT0};
        MOV       DPTR,#`?<Constant {128, 64, 32, 16, 8, 4, 2, 1}>`
        MOV       R4,?XSP + 0
        MOV       R5,?XSP + 1
        MOV       A,#0x8
        LCALL     ?MOVE_LONG8_XDATA_XDATA
//  790     uint8 mask = mask_array[index];
        MOV       DPL,?XSP + 0
        MOV       DPH,?XSP + 1
        MOV       A,DPL
        ADD       A,R6
        MOV       DPL,A
        CLR       A
        ADDC      A,DPH
        MOV       DPH,A
        MOVX      A,@DPTR
        MOV       ?V2,A
//  791 
//  792     if (index > 7)
        MOV       A,R6
        CLR       C
        SUBB      A,#0x8
        JNC       ??HalLcd_Convert_DZK_0
//  793     {
//  794         return return_val;
//  795     }
//  796 
//  797     for (j = 0; j < 6; j++)
        MOV       R7,#0x0
//  798     {
//  799         temp = ASCIITAB_DZK[addr + j];
//  800         temp = temp & mask;
//  801         temp = temp >> (7 - index);
//  802         if (temp)
??HalLcd_Convert_DZK_1:
        MOV       A,R7
        MOV       R4,A
        MOV       A,R2
        ADD       A,R4
        MOV       R4,A
        CLR       A
        ADDC      A,R3
        MOV       R5,A
        MOV       A,#ASCIITAB_DZK & 0xff
        ADD       A,R4
        MOV       DPL,A
        MOV       A,#(ASCIITAB_DZK >> 8) & 0xff
        ADDC      A,R5
        MOV       DPH,A
        CLR       A
        MOVC      A,@A+DPTR
        ANL       A,?V2
        MOV       ?V0,A
        MOV       ?V1,#0x0
        MOV       A,#0x7
        CLR       C
        SUBB      A,R6
        MOV       R0,#?V0
        LCALL     ?SS_SHR
        MOV       A,?V0
        JZ        ??HalLcd_Convert_DZK_2
//  803         {
//  804             return_val |=  mask_array[7-j];
        LCALL     ?Subroutine12 & 0xFFFF
//  805         }
??CrossCallReturnLabel_4:
        XCH       A,R1
        ORL       A,R1
        SJMP      ??HalLcd_Convert_DZK_3
//  806         else
//  807         {
//  808             return_val &=  ~mask_array[7-j];
??HalLcd_Convert_DZK_2:
        LCALL     ?Subroutine12 & 0xFFFF
//  809         }
//  810     }
??CrossCallReturnLabel_5:
        CPL       A
        XCH       A,R1
        ANL       A,R1
??HalLcd_Convert_DZK_3:
        MOV       R1,A
        INC       R7
        MOV       A,R7
        CLR       C
        SUBB      A,#0x6
        JC        ??HalLcd_Convert_DZK_1
//  811 
//  812     return return_val;
??HalLcd_Convert_DZK_0:
        MOV       A,#0x8
        LCALL     ?DEALLOC_XSTACK8
          CFI EndBlock cfiBlock73
        REQUIRE ?Subroutine5
        ; // Fall through to label ?Subroutine5
//  813 }

        RSEG BANKED_CODE:HUGECODE:NOROOT(0)
?Subroutine5:
          CFI Block cfiBlock74 Using cfiCommon0
          CFI NoFunction
          CFI CFA_SP SP+0
          CFI CFA_XSP16 add(XSP16, 11)
          CFI VB load(1, XDATA, add(CFA_XSP16, literal(-10)))
          CFI DPL0 load(1, XDATA, add(CFA_XSP16, literal(-2)))
          CFI DPH0 load(1, XDATA, add(CFA_XSP16, literal(-1)))
          CFI R6 load(1, XDATA, add(CFA_XSP16, literal(-11)))
          CFI R7 load(1, XDATA, add(CFA_XSP16, literal(-6)))
          CFI V0 load(1, XDATA, add(CFA_XSP16, literal(-9)))
          CFI V1 load(1, XDATA, add(CFA_XSP16, literal(-8)))
          CFI V2 load(1, XDATA, add(CFA_XSP16, literal(-7)))
          CFI ?BRET_EXT load(1, XDATA, add(CFA_XSP16, literal(-3)))
          CFI ?RET_HIGH load(1, XDATA, add(CFA_XSP16, literal(-4)))
          CFI ?RET_LOW load(1, XDATA, add(CFA_XSP16, literal(-5)))
        MOV       R7,#0x3
        LJMP      ?BANKED_LEAVE_XDATA
          CFI EndBlock cfiBlock74

        RSEG BANKED_CODE:HUGECODE:NOROOT(0)
?Subroutine12:
          CFI Block cfiCond75 Using cfiCommon0
          CFI Function HalLcd_Convert_DZK
          CFI Conditional ??CrossCallReturnLabel_4
          CFI R6 load(1, XDATA, add(CFA_XSP16, literal(-11)))
          CFI VB load(1, XDATA, add(CFA_XSP16, literal(-10)))
          CFI V0 load(1, XDATA, add(CFA_XSP16, literal(-9)))
          CFI V1 load(1, XDATA, add(CFA_XSP16, literal(-8)))
          CFI V2 load(1, XDATA, add(CFA_XSP16, literal(-7)))
          CFI R7 load(1, XDATA, add(CFA_XSP16, literal(-6)))
          CFI ?RET_LOW load(1, XDATA, add(CFA_XSP16, literal(-5)))
          CFI ?RET_HIGH load(1, XDATA, add(CFA_XSP16, literal(-4)))
          CFI ?BRET_EXT load(1, XDATA, add(CFA_XSP16, literal(-3)))
          CFI DPL0 load(1, XDATA, add(CFA_XSP16, literal(-2)))
          CFI DPH0 load(1, XDATA, add(CFA_XSP16, literal(-1)))
          CFI CFA_SP SP+-2
          CFI CFA_XSP16 add(XSP16, 19)
          CFI Block cfiCond76 Using cfiCommon0
          CFI (cfiCond76) Function HalLcd_Convert_DZK
          CFI (cfiCond76) Conditional ??CrossCallReturnLabel_5
          CFI (cfiCond76) R6 load(1, XDATA, add(CFA_XSP16, literal(-11)))
          CFI (cfiCond76) VB load(1, XDATA, add(CFA_XSP16, literal(-10)))
          CFI (cfiCond76) V0 load(1, XDATA, add(CFA_XSP16, literal(-9)))
          CFI (cfiCond76) V1 load(1, XDATA, add(CFA_XSP16, literal(-8)))
          CFI (cfiCond76) V2 load(1, XDATA, add(CFA_XSP16, literal(-7)))
          CFI (cfiCond76) R7 load(1, XDATA, add(CFA_XSP16, literal(-6)))
          CFI (cfiCond76) ?RET_LOW load(1, XDATA, add(CFA_XSP16, literal(-5)))
          CFI (cfiCond76) ?RET_HIGH load(1, XDATA, add(CFA_XSP16, literal(-4)))
          CFI (cfiCond76) ?BRET_EXT load(1, XDATA, add(CFA_XSP16, literal(-3)))
          CFI (cfiCond76) DPL0 load(1, XDATA, add(CFA_XSP16, literal(-2)))
          CFI (cfiCond76) DPH0 load(1, XDATA, add(CFA_XSP16, literal(-1)))
          CFI (cfiCond76) CFA_SP SP+-2
          CFI (cfiCond76) CFA_XSP16 add(XSP16, 19)
          CFI Block cfiPicker77 Using cfiCommon1
          CFI (cfiPicker77) NoFunction
          CFI (cfiPicker77) Picker
        MOV       A,R7
        MOV       R4,A
        CLR       C
        CLR       A
        SUBB      A,R4
        MOV       R4,A
        SUBB      A,0xE0 /* A   */
        MOV       R5,A
        MOV       DPL,?XSP + 0
        MOV       DPH,?XSP + 1
        MOV       A,DPL
        ADD       A,R4
        MOV       DPL,A
        MOV       A,DPH
        ADDC      A,R5
        MOV       DPH,A
        INC       DPTR
        INC       DPTR
        INC       DPTR
        INC       DPTR
        INC       DPTR
        INC       DPTR
        INC       DPTR
        MOVX      A,@DPTR
        RET
          CFI EndBlock cfiCond75
          CFI EndBlock cfiCond76
          CFI EndBlock cfiPicker77
//  814 
//  815 /**************************************************************************************************
//  816  * @fn          halLcdWriteLine
//  817  *
//  818  * @brief       Write one line on display
//  819  *
//  820  * @param       uint8 line - display line
//  821  *              char *pText - text buffer to write
//  822  *
//  823  * @return      none
//  824  **************************************************************************************************/

        RSEG BANKED_CODE:HUGECODE:NOROOT(0)
//  825 void HalLcd_HW_WriteLine(uint8 line, const char *pText)
HalLcd_HW_WriteLine:
          CFI Block cfiBlock78 Using cfiCommon0
          CFI Function HalLcd_HW_WriteLine
        CODE
//  826 {
        FUNCALL HalLcd_HW_WriteLine, osal_strlen
        LOCFRAME ISTACK, 0, STACK
        LOCFRAME PSTACK, 0, STACK
        LOCFRAME XSTACK, 11, STACK
        LOCFRAME IOVERLAY, 0, STATIC
        LOCFRAME DOVERLAY, 0, STATIC
        ARGFRAME ISTACK, 0, STACK
        ARGFRAME PSTACK, 0, STACK
        ARGFRAME XSTACK, 11, STACK
        ARGFRAME IOVERLAY, 0, STATIC
        ARGFRAME DOVERLAY, 0, STATIC
        FUNCALL HalLcd_HW_WriteLine, HalLcd_HW_WriteChar
        LOCFRAME ISTACK, 0, STACK
        LOCFRAME PSTACK, 0, STACK
        LOCFRAME XSTACK, 11, STACK
        LOCFRAME IOVERLAY, 0, STATIC
        LOCFRAME DOVERLAY, 0, STATIC
        ARGFRAME ISTACK, 0, STACK
        ARGFRAME PSTACK, 0, STACK
        ARGFRAME XSTACK, 11, STACK
        ARGFRAME IOVERLAY, 0, STATIC
        ARGFRAME DOVERLAY, 0, STATIC
        FUNCALL HalLcd_HW_WriteLine, HalLcd_HW_WriteChar
        LOCFRAME ISTACK, 0, STACK
        LOCFRAME PSTACK, 0, STACK
        LOCFRAME XSTACK, 11, STACK
        LOCFRAME IOVERLAY, 0, STATIC
        LOCFRAME DOVERLAY, 0, STATIC
        ARGFRAME ISTACK, 0, STACK
        ARGFRAME PSTACK, 0, STACK
        ARGFRAME XSTACK, 11, STACK
        ARGFRAME IOVERLAY, 0, STATIC
        ARGFRAME DOVERLAY, 0, STATIC
        REQUIRE ?V0
        REQUIRE ?V1
        REQUIRE ?V2
        MOV       A,#-0xb
        LCALL     ?BANKED_ENTER_XDATA
          CFI DPH0 load(1, XDATA, add(CFA_XSP16, literal(-1)))
          CFI DPL0 load(1, XDATA, add(CFA_XSP16, literal(-2)))
          CFI ?BRET_EXT load(1, XDATA, add(CFA_XSP16, literal(-3)))
          CFI ?RET_HIGH load(1, XDATA, add(CFA_XSP16, literal(-4)))
          CFI ?RET_LOW load(1, XDATA, add(CFA_XSP16, literal(-5)))
          CFI R7 load(1, XDATA, add(CFA_XSP16, literal(-6)))
          CFI V2 load(1, XDATA, add(CFA_XSP16, literal(-7)))
          CFI V1 load(1, XDATA, add(CFA_XSP16, literal(-8)))
          CFI V0 load(1, XDATA, add(CFA_XSP16, literal(-9)))
          CFI VB load(1, XDATA, add(CFA_XSP16, literal(-10)))
          CFI R6 load(1, XDATA, add(CFA_XSP16, literal(-11)))
          CFI CFA_SP SP+0
          CFI CFA_XSP16 add(XSP16, 11)
        ; Saved register size: 11
        ; Auto size: 0
        MOV       ?V1,R1
        MOV       A,R2
        MOV       R6,A
        MOV       A,R3
        MOV       R7,A
//  827   uint8 count;
//  828   uint8 totalLength = (uint8)osal_strlen( (char *)pText );
        ; Setup parameters for call to function osal_strlen
        LCALL     `??osal_strlen::?relay`; Banked call to: osal_strlen
        MOV       A,R2
        MOV       ?V2,A
//  829 
//  830   /* Write the content first */
//  831   for (count=0; count<totalLength; count++)
        MOV       ?V0,#0x0
        SJMP      ??HalLcd_HW_WriteLine_0
//  832   {
//  833     HalLcd_HW_WriteChar(line, count, (*(pText++)));
??HalLcd_HW_WriteLine_1:
        ; Setup parameters for call to function HalLcd_HW_WriteChar
        MOV       DPL,R6
        MOV       DPH,R7
        MOVX      A,@DPTR
        MOV       R3,A
        MOV       R2,?V0
        MOV       R1,?V1
        LCALL     `??HalLcd_HW_WriteChar::?relay`; Banked call to: HalLcd_HW_WriteChar
        MOV       DPL,R6
        MOV       DPH,R7
        INC       DPTR
        MOV       R6,DPL
        MOV       R7,DPH
//  834   }
        INC       ?V0
??HalLcd_HW_WriteLine_0:
        MOV       A,?V0
        CLR       C
        SUBB      A,?V2
        JC        ??HalLcd_HW_WriteLine_1
//  835 
//  836   /* Write blank spaces to rest of the line */
//  837   for(count=totalLength; count<LCD_MAX_LINE_LENGTH;count++)
        MOV       ?V0,?V2
        SJMP      ??HalLcd_HW_WriteLine_2
//  838   {
//  839     HalLcd_HW_WriteChar(line, count, ' ');
??HalLcd_HW_WriteLine_3:
        ; Setup parameters for call to function HalLcd_HW_WriteChar
        MOV       R3,#0x20
        MOV       R2,?V0
        MOV       R1,?V1
        LCALL     `??HalLcd_HW_WriteChar::?relay`; Banked call to: HalLcd_HW_WriteChar
//  840   }
        INC       ?V0
??HalLcd_HW_WriteLine_2:
        MOV       A,?V0
        CLR       C
        SUBB      A,#0x10
        JC        ??HalLcd_HW_WriteLine_3
//  841 }
        SJMP      ?Subroutine5
          CFI EndBlock cfiBlock78
//  842 
//  843 /**************************************************************************************************
//  844  * @fn      HalLcd_HW_WaitUs
//  845  *
//  846  * @brief   wait for x us. @ 32MHz MCU clock it takes 32 "nop"s for 1 us delay.
//  847  *
//  848  * @param   x us. range[0-65536]
//  849  *
//  850  * @return  None
//  851  **************************************************************************************************/

        RSEG BANKED_CODE:HUGECODE:NOROOT(0)
//  852 void HalLcd_HW_WaitUs(uint16 microSecs)
HalLcd_HW_WaitUs:
          CFI Block cfiBlock79 Using cfiCommon0
          CFI Function HalLcd_HW_WaitUs
        CODE
//  853 {
        ; Saved register size: 0
        ; Auto size: 0
        SJMP      ??HalLcd_HW_WaitUs_0
//  854   while(microSecs--)
//  855   {
//  856     /* 32 NOPs == 1 usecs */
//  857     asm("nop"); asm("nop"); asm("nop"); asm("nop"); asm("nop");
??HalLcd_HW_WaitUs_1:
        nop
        nop
        nop
        nop
        nop
//  858     asm("nop"); asm("nop"); asm("nop"); asm("nop"); asm("nop");
        nop
        nop
        nop
        nop
        nop
//  859     asm("nop"); asm("nop"); asm("nop"); asm("nop"); asm("nop");
        nop
        nop
        nop
        nop
        nop
//  860     asm("nop"); asm("nop"); asm("nop"); asm("nop"); asm("nop");
        nop
        nop
        nop
        nop
        nop
//  861     asm("nop"); asm("nop"); asm("nop"); asm("nop"); asm("nop");
        nop
        nop
        nop
        nop
        nop
//  862     asm("nop"); asm("nop"); asm("nop"); asm("nop"); asm("nop");
        nop
        nop
        nop
        nop
        nop
//  863     asm("nop"); asm("nop");
        nop
        nop
//  864   }
??HalLcd_HW_WaitUs_0:
        MOV       A,R2
        MOV       R0,A
        MOV       A,R3
        MOV       R1,A
        MOV       A,R0
        ADD       A,#-0x1
        DEC       R2
        MOV       A,R1
        ADDC      A,#-0x1
        MOV       R3,A
        MOV       A,R0
        ORL       A,R1
        JNZ       ??HalLcd_HW_WaitUs_1
//  865 }
        LJMP      ?BRET
          CFI EndBlock cfiBlock79

        RSEG BANK_RELAYS:CODE:REORDER:NOROOT(0)
`??HalLcdInit::?relay`:
        CODE
        LCALL   ?BDISPATCH
        DATA24
        DC24    HalLcdInit

        RSEG BANK_RELAYS:CODE:REORDER:NOROOT(0)
`??SET_DDRAM_ADDR::?relay`:
        CODE
        LCALL   ?BDISPATCH
        DATA24
        DC24    SET_DDRAM_ADDR

        RSEG BANK_RELAYS:CODE:REORDER:NOROOT(0)
`??HalLcdWriteString::?relay`:
        CODE
        LCALL   ?BDISPATCH
        DATA24
        DC24    HalLcdWriteString

        RSEG BANK_RELAYS:CODE:REORDER:NOROOT(0)
`??HalLcdWriteValue::?relay`:
        CODE
        LCALL   ?BDISPATCH
        DATA24
        DC24    HalLcdWriteValue

        RSEG BANK_RELAYS:CODE:REORDER:NOROOT(0)
`??HalLcdWriteScreen::?relay`:
        CODE
        LCALL   ?BDISPATCH
        DATA24
        DC24    HalLcdWriteScreen

        RSEG BANK_RELAYS:CODE:REORDER:NOROOT(0)
`??HalLcdWriteStringValue::?relay`:
        CODE
        LCALL   ?BDISPATCH
        DATA24
        DC24    HalLcdWriteStringValue

        RSEG BANK_RELAYS:CODE:REORDER:NOROOT(0)
`??HalLcdWriteStringValueValue::?relay`:
        CODE
        LCALL   ?BDISPATCH
        DATA24
        DC24    HalLcdWriteStringValueValue

        RSEG BANK_RELAYS:CODE:REORDER:NOROOT(0)
`??HalLcdDisplayPercentBar::?relay`:
        CODE
        LCALL   ?BDISPATCH
        DATA24
        DC24    HalLcdDisplayPercentBar

        RSEG BANK_RELAYS:CODE:REORDER:NOROOT(0)
`??HalLcd_HW_Init::?relay`:
        CODE
        LCALL   ?BDISPATCH
        DATA24
        DC24    HalLcd_HW_Init

        RSEG BANK_RELAYS:CODE:REORDER:NOROOT(0)
`??HalLcd_HW_Control::?relay`:
        CODE
        LCALL   ?BDISPATCH
        DATA24
        DC24    HalLcd_HW_Control

        RSEG BANK_RELAYS:CODE:REORDER:NOROOT(0)
`??HalLcd_HW_Write::?relay`:
        CODE
        LCALL   ?BDISPATCH
        DATA24
        DC24    HalLcd_HW_Write

        RSEG BANK_RELAYS:CODE:REORDER:NOROOT(0)
`??HalLcd_HW_SetContrast::?relay`:
        CODE
        LCALL   ?BDISPATCH
        DATA24
        DC24    HalLcd_HW_SetContrast

        RSEG BANK_RELAYS:CODE:REORDER:NOROOT(0)
`??HalLcd_HW_Clear::?relay`:
        CODE
        LCALL   ?BDISPATCH
        DATA24
        DC24    HalLcd_HW_Clear

        RSEG BANK_RELAYS:CODE:REORDER:NOROOT(0)
`??HalLcd_HW_WriteChar::?relay`:
        CODE
        LCALL   ?BDISPATCH
        DATA24
        DC24    HalLcd_HW_WriteChar

        RSEG BANK_RELAYS:CODE:REORDER:NOROOT(0)
`??HalLcd_Convert_DZK::?relay`:
        CODE
        LCALL   ?BDISPATCH
        DATA24
        DC24    HalLcd_Convert_DZK

        RSEG BANK_RELAYS:CODE:REORDER:NOROOT(0)
`??HalLcd_HW_WriteLine::?relay`:
        CODE
        LCALL   ?BDISPATCH
        DATA24
        DC24    HalLcd_HW_WriteLine

        RSEG BANK_RELAYS:CODE:REORDER:NOROOT(0)
`??HalLcd_HW_WaitUs::?relay`:
        CODE
        LCALL   ?BDISPATCH
        DATA24
        DC24    HalLcd_HW_WaitUs

        RSEG XDATA_ROM_C:CONST:REORDER:NOROOT(0)
        DATA8
`?<Constant "TexasInstruments">`:
        DB "TexasInstruments"

        RSEG XDATA_ROM_C:CONST:REORDER:NOROOT(0)
        DATA8
`?<Constant "[          ]  ">`:
        DB "[          ]  "

        RSEG XDATA_ROM_C:CONST:REORDER:NOROOT(0)
        DATA8
`?<Constant {128, 64, 32, 16, 8, 4, 2, 1}>`:
        DB 128
        DB 64
        DB 32
        DB 16
        DB 8
        DB 4
        DB 2
        DB 1

        END
//  866 #endif
//  867 
//  868 
//  869 /**************************************************************************************************
//  870 **************************************************************************************************/
//  871 
//  872 
//  873 
// 
// 1 522 bytes in segment BANKED_CODE
//   102 bytes in segment BANK_RELAYS
// 1 152 bytes in segment CODE_C
//    12 bytes in segment SFR_AN
//    40 bytes in segment XDATA_ROM_C
//     2 bytes in segment XDATA_Z
// 
// 1 254 bytes of CODE     memory
//    40 bytes of CONST    memory
//     0 bytes of DATA     memory (+ 12 bytes shared)
// 1 522 bytes of HUGECODE memory
//     2 bytes of XDATA    memory
//
//Errors: none
//Warnings: 10
